---
triple:          'x86_64-apple-darwin'
binary-path:     compiler
relocations:
  - { offsetInCU: 0x3F, offset: 0x3F, size: 0x8, addend: 0x0, symName: _root, symObjAddr: 0x52510, symBinAddr: 0x100030008, symSize: 0x0 }
  - { offsetInCU: 0x78BE, offset: 0x78BE, size: 0x8, addend: 0x0, symName: __ZNSt3__124__put_character_sequenceB7v160006IcNS_11char_traitsIcEEEERNS_13basic_ostreamIT_T0_EES7_PKS4_m, symObjAddr: 0xA750, symBinAddr: 0x10000CBD0, symSize: 0x1F0 }
  - { offsetInCU: 0x8D81, offset: 0x8D81, size: 0x8, addend: 0x0, symName: __ZNSt3__1lsB7v160006INS_11char_traitsIcEEEERNS_13basic_ostreamIcT_EES6_PKc, symObjAddr: 0x8DF0, symBinAddr: 0x10000B270, symSize: 0x40 }
  - { offsetInCU: 0x8DC7, offset: 0x8DC7, size: 0x8, addend: 0x0, symName: __ZNSt3__14endlB7v160006IcNS_11char_traitsIcEEEERNS_13basic_ostreamIT_T0_EES7_, symObjAddr: 0x8E50, symBinAddr: 0x10000B2D0, symSize: 0x50 }
  - { offsetInCU: 0x8E07, offset: 0x8E07, size: 0x8, addend: 0x0, symName: __ZNSt3__1lsB7v160006IcNS_11char_traitsIcEENS_9allocatorIcEEEERNS_13basic_ostreamIT_T0_EES9_RKNS_12basic_stringIS6_S7_T1_EE, symObjAddr: 0x90C0, symBinAddr: 0x10000B540, symSize: 0x50 }
  - { offsetInCU: 0x8E5F, offset: 0x8E5F, size: 0x8, addend: 0x0, symName: __ZNSt3__118__debug_db_erase_cB7v160006INS_6vectorIN2yy6parser17stack_symbol_typeENS_9allocatorIS4_EEEEEEvPT_, symObjAddr: 0x9BF0, symBinAddr: 0x10000C070, symSize: 0x10 }
  - { offsetInCU: 0x8E90, offset: 0x8E90, size: 0x8, addend: 0x0, symName: __ZNSt3__112__to_addressB7v160006IN2yy6parser17stack_symbol_typeEEEPT_S5_, symObjAddr: 0x9D20, symBinAddr: 0x10000C1A0, symSize: 0x10 }
  - { offsetInCU: 0x8EC5, offset: 0x8EC5, size: 0x8, addend: 0x0, symName: __ZNSt3__119__libcpp_deallocateB7v160006EPvmm, symObjAddr: 0x9E50, symBinAddr: 0x10000C2D0, symSize: 0x30 }
  - { offsetInCU: 0x8F0D, offset: 0x8F0D, size: 0x8, addend: 0x0, symName: __ZNSt3__127__do_deallocate_handle_sizeB7v160006IJEEEvPvmDpT_, symObjAddr: 0x9E80, symBinAddr: 0x10000C300, symSize: 0x20 }
  - { offsetInCU: 0x8F4B, offset: 0x8F4B, size: 0x8, addend: 0x0, symName: __ZNSt3__124__libcpp_operator_deleteB7v160006IJPvEEEvDpT_, symObjAddr: 0x9EA0, symBinAddr: 0x10000C320, symSize: 0x20 }
  - { offsetInCU: 0x8F80, offset: 0x8F80, size: 0x8, addend: 0x0, symName: __ZNSt3__119__debug_db_insert_cB7v160006INS_4listIP4NodeNS_9allocatorIS3_EEEEEEvPT_, symObjAddr: 0xA1D0, symBinAddr: 0x10000C650, symSize: 0x10 }
  - { offsetInCU: 0x8FE4, offset: 0x8FE4, size: 0x8, addend: 0x0, symName: __ZNSt3__119__debug_db_insert_cB7v160006INS_12basic_stringIcNS_11char_traitsIcEENS_9allocatorIcEEEEEEvPT_, symObjAddr: 0xA3F0, symBinAddr: 0x10000C870, symSize: 0x10 }
  - { offsetInCU: 0x9015, offset: 0x9015, size: 0x8, addend: 0x0, symName: __ZNSt3__112__to_addressB7v160006IKcEEPT_S3_, symObjAddr: 0xA5E0, symBinAddr: 0x10000CA60, symSize: 0x10 }
  - { offsetInCU: 0x907D, offset: 0x907D, size: 0x8, addend: 0x0, symName: __ZNSt3__116__pad_and_outputB7v160006IcNS_11char_traitsIcEEEENS_19ostreambuf_iteratorIT_T0_EES6_PKS4_S8_S8_RNS_8ios_baseES4_, symObjAddr: 0xA990, symBinAddr: 0x10000CE10, symSize: 0x220 }
  - { offsetInCU: 0x914D, offset: 0x914D, size: 0x8, addend: 0x0, symName: __ZNSt3__19use_facetB7v160006INS_5ctypeIcEEEERKT_RKNS_6localeE, symObjAddr: 0xAF00, symBinAddr: 0x10000D380, symSize: 0x30 }
  - { offsetInCU: 0x961C, offset: 0x961C, size: 0x8, addend: 0x0, symName: __ZNSt3__118__constexpr_strlenB7v160006EPKc, symObjAddr: 0xAF90, symBinAddr: 0x10000D410, symSize: 0x20 }
  - { offsetInCU: 0x9648, offset: 0x9648, size: 0x8, addend: 0x0, symName: __ZNSt3__122__make_exception_guardB7v160006INS_6vectorIN2yy6parser17stack_symbol_typeENS_9allocatorIS4_EEE16__destroy_vectorEEENS_28__exception_guard_exceptionsIT_EESA_, symObjAddr: 0xB180, symBinAddr: 0x10000D600, symSize: 0x40 }
  - { offsetInCU: 0x967D, offset: 0x967D, size: 0x8, addend: 0x0, symName: __ZNSt3__119__debug_db_insert_cB7v160006INS_6vectorIN2yy6parser17stack_symbol_typeENS_9allocatorIS4_EEEEEEvPT_, symObjAddr: 0xB1C0, symBinAddr: 0x10000D640, symSize: 0x10 }
  - { offsetInCU: 0x96AE, offset: 0x96AE, size: 0x8, addend: 0x0, symName: __ZNSt3__119__allocate_at_leastB7v160006INS_9allocatorIN2yy6parser17stack_symbol_typeEEEEENS_19__allocation_resultINS_16allocator_traitsIT_E7pointerEEERS8_m, symObjAddr: 0xB4F0, symBinAddr: 0x10000D970, symSize: 0x40 }
  - { offsetInCU: 0x96F1, offset: 0x96F1, size: 0x8, addend: 0x0, symName: __ZNSt3__13minB7v160006ImEERKT_S3_S3_, symObjAddr: 0xB5F0, symBinAddr: 0x10000DA70, symSize: 0x30 }
  - { offsetInCU: 0x9935, offset: 0x9935, size: 0x8, addend: 0x0, symName: __ZNSt3__13minB7v160006ImNS_6__lessImmEEEERKT_S5_S5_T0_, symObjAddr: 0xB670, symBinAddr: 0x10000DAF0, symSize: 0x50 }
  - { offsetInCU: 0x99CA, offset: 0x99CA, size: 0x8, addend: 0x0, symName: __ZNSt3__120__throw_length_errorB7v160006EPKc, symObjAddr: 0xB750, symBinAddr: 0x10000DBD0, symSize: 0x70 }
  - { offsetInCU: 0x99F2, offset: 0x99F2, size: 0x8, addend: 0x0, symName: __ZNSt3__117__libcpp_allocateB7v160006Emm, symObjAddr: 0xB8C0, symBinAddr: 0x10000DD40, symSize: 0x20 }
  - { offsetInCU: 0x9A2F, offset: 0x9A2F, size: 0x8, addend: 0x0, symName: __ZNSt3__121__libcpp_operator_newB7v160006IJmEEEPvDpT_, symObjAddr: 0xB8E0, symBinAddr: 0x10000DD60, symSize: 0x20 }
  - { offsetInCU: 0x9A68, offset: 0x9A68, size: 0x8, addend: 0x0, symName: __ZNSt3__115__debug_db_swapB7v160006INS_12basic_stringIcNS_11char_traitsIcEENS_9allocatorIcEEEEEEvPT_S8_, symObjAddr: 0xBCC0, symBinAddr: 0x10000E140, symSize: 0x10 }
  - { offsetInCU: 0x9AA7, offset: 0x9AA7, size: 0x8, addend: 0x0, symName: __ZNSt3__13maxB7v160006ImEERKT_S3_S3_, symObjAddr: 0xC1C0, symBinAddr: 0x10000E640, symSize: 0x30 }
  - { offsetInCU: 0x9AEA, offset: 0x9AEA, size: 0x8, addend: 0x0, symName: __ZNSt3__13maxB7v160006ImNS_6__lessImmEEEERKT_S5_S5_T0_, symObjAddr: 0xC1F0, symBinAddr: 0x10000E670, symSize: 0x50 }
  - { offsetInCU: 0x9B44, offset: 0x9B44, size: 0x8, addend: 0x0, symName: __ZNSt3__142__uninitialized_allocator_move_if_noexceptB7v160006INS_9allocatorIN2yy6parser17stack_symbol_typeEEENS_16reverse_iteratorIPS4_EES8_S8_EET2_RT_T0_T1_S9_, symObjAddr: 0xC430, symBinAddr: 0x10000E8B0, symSize: 0x180 }
  - { offsetInCU: 0x9BE3, offset: 0x9BE3, size: 0x8, addend: 0x0, symName: __ZNSt3__14swapB7v160006IPN2yy6parser17stack_symbol_typeEEENS_9enable_ifIXaasr21is_move_constructibleIT_EE5valuesr18is_move_assignableIS6_EE5valueEvE4typeERS6_S9_, symObjAddr: 0xC600, symBinAddr: 0x10000EA80, symSize: 0x40 }
  - { offsetInCU: 0x9C34, offset: 0x9C34, size: 0x8, addend: 0x0, symName: __ZNSt3__125__debug_db_invalidate_allB7v160006INS_6vectorIN2yy6parser17stack_symbol_typeENS_9allocatorIS4_EEEEEEvPT_, symObjAddr: 0xC640, symBinAddr: 0x10000EAC0, symSize: 0x10 }
  - { offsetInCU: 0x9C65, offset: 0x9C65, size: 0x8, addend: 0x0, symName: __ZNSt3__122__make_exception_guardB7v160006INS_29_AllocatorDestroyRangeReverseINS_9allocatorIN2yy6parser17stack_symbol_typeEEENS_16reverse_iteratorIPS5_EEEEEENS_28__exception_guard_exceptionsIT_EESC_, symObjAddr: 0xC650, symBinAddr: 0x10000EAD0, symSize: 0x60 }
  - { offsetInCU: 0x9C9A, offset: 0x9C9A, size: 0x8, addend: 0x0, symName: __ZNSt3__1neB7v160006IPN2yy6parser17stack_symbol_typeES4_EEbRKNS_16reverse_iteratorIT_EERKNS5_IT0_EE, symObjAddr: 0xC6F0, symBinAddr: 0x10000EB70, symSize: 0x40 }
  - { offsetInCU: 0x9CE6, offset: 0x9CE6, size: 0x8, addend: 0x0, symName: __ZNSt3__112__to_addressB7v160006INS_16reverse_iteratorIPN2yy6parser17stack_symbol_typeEEEvEENS_5decayIDTclsr19__to_address_helperIT_EE6__callclsr3stdE7declvalIRKS8_EEEEE4typeESA_, symObjAddr: 0xC730, symBinAddr: 0x10000EBB0, symSize: 0x20 }
  - { offsetInCU: 0x9D45, offset: 0x9D45, size: 0x8, addend: 0x0, symName: __ZNSt3__119__allocator_destroyB7v160006INS_9allocatorIN2yy6parser17stack_symbol_typeEEENS_16reverse_iteratorINS6_IPS4_EEEES9_EEvRT_T0_T1_, symObjAddr: 0xCA20, symBinAddr: 0x10000EEA0, symSize: 0x70 }
  - { offsetInCU: 0x9DA8, offset: 0x9DA8, size: 0x8, addend: 0x0, symName: __ZNSt3__1neB7v160006INS_16reverse_iteratorIPN2yy6parser17stack_symbol_typeEEES6_EEbRKNS1_IT_EERKNS1_IT0_EE, symObjAddr: 0xCAC0, symBinAddr: 0x10000EF40, symSize: 0x50 }
  - { offsetInCU: 0x9DF4, offset: 0x9DF4, size: 0x8, addend: 0x0, symName: __ZNSt3__112__to_addressB7v160006INS_16reverse_iteratorINS1_IPN2yy6parser17stack_symbol_typeEEEEEvEENS_5decayIDTclsr19__to_address_helperIT_EE6__callclsr3stdE7declvalIRKS9_EEEEE4typeESB_, symObjAddr: 0xCB10, symBinAddr: 0x10000EF90, symSize: 0x20 }
  - { offsetInCU: 0xA29D, offset: 0xA29D, size: 0x8, addend: 0x0, symName: __ZSt28__throw_bad_array_new_lengthB7v160006v, symObjAddr: 0xB880, symBinAddr: 0x10000DD00, symSize: 0x40 }
  - { offsetInCU: 0xAB97, offset: 0xAB97, size: 0x8, addend: 0x0, symName: __ZN2yy6parser12yypact_ninf_E, symObjAddr: 0xE40B, symBinAddr: 0x10002905B, symSize: 0x0 }
  - { offsetInCU: 0xBE3B, offset: 0xBE3B, size: 0x8, addend: 0x0, symName: __ZN2yy6parser13yytable_ninf_E, symObjAddr: 0xE40C, symBinAddr: 0x10002905C, symSize: 0x0 }
  - { offsetInCU: 0xBE53, offset: 0xBE53, size: 0x8, addend: 0x0, symName: __ZN2yy6parser7yypact_E, symObjAddr: 0xE410, symBinAddr: 0x100029060, symSize: 0x0 }
  - { offsetInCU: 0xBE6B, offset: 0xBE6B, size: 0x8, addend: 0x0, symName: __ZN2yy6parser9yydefact_E, symObjAddr: 0xE570, symBinAddr: 0x1000291C0, symSize: 0x0 }
  - { offsetInCU: 0xBE83, offset: 0xBE83, size: 0x8, addend: 0x0, symName: __ZN2yy6parser8yypgoto_E, symObjAddr: 0xE620, symBinAddr: 0x100029270, symSize: 0x0 }
  - { offsetInCU: 0xBE9B, offset: 0xBE9B, size: 0x8, addend: 0x0, symName: __ZN2yy6parser10yydefgoto_E, symObjAddr: 0xE650, symBinAddr: 0x1000292A0, symSize: 0x0 }
  - { offsetInCU: 0xBEB3, offset: 0xBEB3, size: 0x8, addend: 0x0, symName: __ZN2yy6parser8yytable_E, symObjAddr: 0xE670, symBinAddr: 0x1000292C0, symSize: 0x0 }
  - { offsetInCU: 0xBECB, offset: 0xBECB, size: 0x8, addend: 0x0, symName: __ZN2yy6parser8yycheck_E, symObjAddr: 0xEA50, symBinAddr: 0x1000296A0, symSize: 0x0 }
  - { offsetInCU: 0xBEE3, offset: 0xBEE3, size: 0x8, addend: 0x0, symName: __ZN2yy6parser7yystos_E, symObjAddr: 0xEE30, symBinAddr: 0x100029A80, symSize: 0x0 }
  - { offsetInCU: 0xBEFB, offset: 0xBEFB, size: 0x8, addend: 0x0, symName: __ZN2yy6parser5yyr1_E, symObjAddr: 0xEEE0, symBinAddr: 0x100029B30, symSize: 0x0 }
  - { offsetInCU: 0xBF13, offset: 0xBF13, size: 0x8, addend: 0x0, symName: __ZN2yy6parser5yyr2_E, symObjAddr: 0xEF30, symBinAddr: 0x100029B80, symSize: 0x0 }
  - { offsetInCU: 0xBF2B, offset: 0xBF2B, size: 0x8, addend: 0x0, symName: __ZN2yy6parser8yytname_E, symObjAddr: 0xE1D0, symBinAddr: 0x10002C950, symSize: 0x0 }
  - { offsetInCU: 0xC2C4, offset: 0xC2C4, size: 0x8, addend: 0x0, symName: __ZNK2yy6parser15yysyntax_error_ERKNS0_7contextE, symObjAddr: 0x9740, symBinAddr: 0x10000BBC0, symSize: 0x270 }
  - { offsetInCU: 0xC3E3, offset: 0xC3E3, size: 0x8, addend: 0x0, symName: __ZNSt3__16vectorIN2yy6parser17stack_symbol_typeENS_9allocatorIS3_EEE26__swap_out_circular_bufferERNS_14__split_bufferIS3_RS5_EE, symObjAddr: 0xC070, symBinAddr: 0x10000E4F0, symSize: 0x130 }
  - { offsetInCU: 0xE45E, offset: 0xE45E, size: 0x8, addend: 0x0, symName: __ZN2yy6parserC2Ev, symObjAddr: 0x0, symBinAddr: 0x100002480, symSize: 0x40 }
  - { offsetInCU: 0xE48A, offset: 0xE48A, size: 0x8, addend: 0x0, symName: __ZN2yy6parser5stackINS0_17stack_symbol_typeENSt3__16vectorIS2_NS3_9allocatorIS2_EEEEEC1Em, symObjAddr: 0x40, symBinAddr: 0x1000024C0, symSize: 0x30 }
  - { offsetInCU: 0xE4C3, offset: 0xE4C3, size: 0x8, addend: 0x0, symName: __ZN2yy6parserC1Ev, symObjAddr: 0x70, symBinAddr: 0x1000024F0, symSize: 0x20 }
  - { offsetInCU: 0xE4EF, offset: 0xE4EF, size: 0x8, addend: 0x0, symName: __ZN2yy6parserD2Ev, symObjAddr: 0x90, symBinAddr: 0x100002510, symSize: 0x30 }
  - { offsetInCU: 0xE51B, offset: 0xE51B, size: 0x8, addend: 0x0, symName: __ZN2yy6parser5stackINS0_17stack_symbol_typeENSt3__16vectorIS2_NS3_9allocatorIS2_EEEEED1Ev, symObjAddr: 0xC0, symBinAddr: 0x100002540, symSize: 0x20 }
  - { offsetInCU: 0xE548, offset: 0xE548, size: 0x8, addend: 0x0, symName: __ZN2yy6parserD1Ev, symObjAddr: 0xE0, symBinAddr: 0x100002560, symSize: 0x20 }
  - { offsetInCU: 0xE574, offset: 0xE574, size: 0x8, addend: 0x0, symName: __ZN2yy6parserD0Ev, symObjAddr: 0x100, symBinAddr: 0x100002580, symSize: 0x30 }
  - { offsetInCU: 0xE5A0, offset: 0xE5A0, size: 0x8, addend: 0x0, symName: __ZN2yy6parser12syntax_errorD2Ev, symObjAddr: 0x130, symBinAddr: 0x1000025B0, symSize: 0x20 }
  - { offsetInCU: 0xE5CC, offset: 0xE5CC, size: 0x8, addend: 0x0, symName: __ZN2yy6parser12syntax_errorD1Ev, symObjAddr: 0x150, symBinAddr: 0x1000025D0, symSize: 0x20 }
  - { offsetInCU: 0xE5F8, offset: 0xE5F8, size: 0x8, addend: 0x0, symName: __ZN2yy6parser12syntax_errorD0Ev, symObjAddr: 0x170, symBinAddr: 0x1000025F0, symSize: 0x30 }
  - { offsetInCU: 0xE624, offset: 0xE624, size: 0x8, addend: 0x0, symName: __ZN2yy6parser8by_stateC2Ev, symObjAddr: 0x1A0, symBinAddr: 0x100002620, symSize: 0x20 }
  - { offsetInCU: 0xE650, offset: 0xE650, size: 0x8, addend: 0x0, symName: __ZN2yy6parser8by_stateC1Ev, symObjAddr: 0x1C0, symBinAddr: 0x100002640, symSize: 0x20 }
  - { offsetInCU: 0xE67C, offset: 0xE67C, size: 0x8, addend: 0x0, symName: __ZN2yy6parser8by_stateC2ERKS1_, symObjAddr: 0x1E0, symBinAddr: 0x100002660, symSize: 0x20 }
  - { offsetInCU: 0xE6B6, offset: 0xE6B6, size: 0x8, addend: 0x0, symName: __ZN2yy6parser8by_stateC1ERKS1_, symObjAddr: 0x200, symBinAddr: 0x100002680, symSize: 0x30 }
  - { offsetInCU: 0xE6F0, offset: 0xE6F0, size: 0x8, addend: 0x0, symName: __ZN2yy6parser8by_state5clearEv, symObjAddr: 0x230, symBinAddr: 0x1000026B0, symSize: 0x20 }
  - { offsetInCU: 0xE718, offset: 0xE718, size: 0x8, addend: 0x0, symName: __ZN2yy6parser8by_state4moveERS1_, symObjAddr: 0x250, symBinAddr: 0x1000026D0, symSize: 0x30 }
  - { offsetInCU: 0xE74E, offset: 0xE74E, size: 0x8, addend: 0x0, symName: __ZN2yy6parser8by_stateC2Eh, symObjAddr: 0x280, symBinAddr: 0x100002700, symSize: 0x20 }
  - { offsetInCU: 0xE788, offset: 0xE788, size: 0x8, addend: 0x0, symName: __ZN2yy6parser8by_stateC1Eh, symObjAddr: 0x2A0, symBinAddr: 0x100002720, symSize: 0x30 }
  - { offsetInCU: 0xE7C2, offset: 0xE7C2, size: 0x8, addend: 0x0, symName: __ZNK2yy6parser8by_state4kindEv, symObjAddr: 0x2D0, symBinAddr: 0x100002750, symSize: 0x50 }
  - { offsetInCU: 0xE7EA, offset: 0xE7EA, size: 0x8, addend: 0x0, symName: __ZN2yy6parser17stack_symbol_typeC2Ev, symObjAddr: 0x320, symBinAddr: 0x1000027A0, symSize: 0x20 }
  - { offsetInCU: 0xE816, offset: 0xE816, size: 0x8, addend: 0x0, symName: __ZN2yy6parser12basic_symbolINS0_8by_stateEEC2Ev, symObjAddr: 0x340, symBinAddr: 0x1000027C0, symSize: 0x30 }
  - { offsetInCU: 0xE840, offset: 0xE840, size: 0x8, addend: 0x0, symName: __ZN2yy6parser17stack_symbol_typeC1Ev, symObjAddr: 0x370, symBinAddr: 0x1000027F0, symSize: 0x20 }
  - { offsetInCU: 0xE86C, offset: 0xE86C, size: 0x8, addend: 0x0, symName: __ZN2yy6parser17stack_symbol_typeC2EOS1_, symObjAddr: 0x390, symBinAddr: 0x100002810, symSize: 0xD0 }
  - { offsetInCU: 0xE8A6, offset: 0xE8A6, size: 0x8, addend: 0x0, symName: __ZN2yy6parser12basic_symbolINS0_8by_stateEEC2Eh, symObjAddr: 0x460, symBinAddr: 0x1000028E0, symSize: 0x40 }
  - { offsetInCU: 0xE8E4, offset: 0xE8E4, size: 0x8, addend: 0x0, symName: __ZN2yy6parser10value_type4moveIP4NodeEEvOS1_, symObjAddr: 0x4A0, symBinAddr: 0x100002920, symSize: 0x40 }
  - { offsetInCU: 0xE922, offset: 0xE922, size: 0x8, addend: 0x0, symName: __ZN2yy6parser10value_type4moveINSt3__112basic_stringIcNS3_11char_traitsIcEENS3_9allocatorIcEEEEEEvOS1_, symObjAddr: 0x4E0, symBinAddr: 0x100002960, symSize: 0x40 }
  - { offsetInCU: 0xE960, offset: 0xE960, size: 0x8, addend: 0x0, symName: __ZN2yy6parser12basic_symbolINS0_8by_stateEED2Ev, symObjAddr: 0x520, symBinAddr: 0x1000029A0, symSize: 0x30 }
  - { offsetInCU: 0xE98A, offset: 0xE98A, size: 0x8, addend: 0x0, symName: __ZN2yy6parser17stack_symbol_typeC1EOS1_, symObjAddr: 0x550, symBinAddr: 0x1000029D0, symSize: 0x30 }
  - { offsetInCU: 0xE9C4, offset: 0xE9C4, size: 0x8, addend: 0x0, symName: __ZN2yy6parser17stack_symbol_typeC2EhONS0_11symbol_typeE, symObjAddr: 0x580, symBinAddr: 0x100002A00, symSize: 0xE0 }
  - { offsetInCU: 0xEA0F, offset: 0xEA0F, size: 0x8, addend: 0x0, symName: __ZNK2yy6parser7by_kind4kindEv, symObjAddr: 0x660, symBinAddr: 0x100002AE0, symSize: 0x10 }
  - { offsetInCU: 0xEA37, offset: 0xEA37, size: 0x8, addend: 0x0, symName: __ZN2yy6parser17stack_symbol_typeC1EhONS0_11symbol_typeE, symObjAddr: 0x670, symBinAddr: 0x100002AF0, symSize: 0x30 }
  - { offsetInCU: 0xEA82, offset: 0xEA82, size: 0x8, addend: 0x0, symName: __ZN2yy6parser7yypush_EPKcONS0_17stack_symbol_typeE, symObjAddr: 0x6A0, symBinAddr: 0x100002B20, symSize: 0x40 }
  - { offsetInCU: 0xEAC9, offset: 0xEAC9, size: 0x8, addend: 0x0, symName: __ZN2yy6parser5stackINS0_17stack_symbol_typeENSt3__16vectorIS2_NS3_9allocatorIS2_EEEEE4pushEOS2_, symObjAddr: 0x6E0, symBinAddr: 0x100002B60, symSize: 0xB0 }
  - { offsetInCU: 0xEB00, offset: 0xEB00, size: 0x8, addend: 0x0, symName: __ZN2yy6parser7yypush_EPKchONS0_11symbol_typeE, symObjAddr: 0x790, symBinAddr: 0x100002C10, symSize: 0xC0 }
  - { offsetInCU: 0xEB5A, offset: 0xEB5A, size: 0x8, addend: 0x0, symName: __ZN2yy6parser17stack_symbol_typeD1Ev, symObjAddr: 0x850, symBinAddr: 0x100002CD0, symSize: 0x20 }
  - { offsetInCU: 0xEB87, offset: 0xEB87, size: 0x8, addend: 0x0, symName: __ZN2yy6parser6yypop_Ei, symObjAddr: 0x870, symBinAddr: 0x100002CF0, symSize: 0x30 }
  - { offsetInCU: 0xEBBF, offset: 0xEBBF, size: 0x8, addend: 0x0, symName: __ZN2yy6parser5stackINS0_17stack_symbol_typeENSt3__16vectorIS2_NS3_9allocatorIS2_EEEEE3popEl, symObjAddr: 0x8A0, symBinAddr: 0x100002D20, symSize: 0x60 }
  - { offsetInCU: 0xEBF4, offset: 0xEBF4, size: 0x8, addend: 0x0, symName: __ZN2yy6parser17yy_lr_goto_state_Ehi, symObjAddr: 0x900, symBinAddr: 0x100002D80, symSize: 0x90 }
  - { offsetInCU: 0xEC39, offset: 0xEC39, size: 0x8, addend: 0x0, symName: __ZN2yy6parser25yy_pact_value_is_default_Ei, symObjAddr: 0x990, symBinAddr: 0x100002E10, symSize: 0x20 }
  - { offsetInCU: 0xEC60, offset: 0xEC60, size: 0x8, addend: 0x0, symName: __ZN2yy6parser24yy_table_value_is_error_Ei, symObjAddr: 0x9B0, symBinAddr: 0x100002E30, symSize: 0x20 }
  - { offsetInCU: 0xEC87, offset: 0xEC87, size: 0x8, addend: 0x0, symName: __ZN2yy6parserclEv, symObjAddr: 0x9D0, symBinAddr: 0x100002E50, symSize: 0x20 }
  - { offsetInCU: 0xECB0, offset: 0xECB0, size: 0x8, addend: 0x0, symName: __ZN2yy6parser5parseEv, symObjAddr: 0x9F0, symBinAddr: 0x100002E70, symSize: 0x8140 }
  - { offsetInCU: 0xEE7A, offset: 0xEE7A, size: 0x8, addend: 0x0, symName: __ZN2yy6parser11symbol_typeC1Ev, symObjAddr: 0x8B30, symBinAddr: 0x10000AFB0, symSize: 0x20 }
  - { offsetInCU: 0xEEA4, offset: 0xEEA4, size: 0x8, addend: 0x0, symName: __ZN2yy6parser5stackINS0_17stack_symbol_typeENSt3__16vectorIS2_NS3_9allocatorIS2_EEEEE5clearEv, symObjAddr: 0x8B50, symBinAddr: 0x10000AFD0, symSize: 0x20 }
  - { offsetInCU: 0xEECA, offset: 0xEECA, size: 0x8, addend: 0x0, symName: __ZN2yy6parser5stackINS0_17stack_symbol_typeENSt3__16vectorIS2_NS3_9allocatorIS2_EEEEEixEl, symObjAddr: 0x8B70, symBinAddr: 0x10000AFF0, symSize: 0x40 }
  - { offsetInCU: 0xEEFF, offset: 0xEEFF, size: 0x8, addend: 0x0, symName: __ZNK2yy6parser12basic_symbolINS0_7by_kindEE5emptyEv, symObjAddr: 0x8BB0, symBinAddr: 0x10000B030, symSize: 0x30 }
  - { offsetInCU: 0xEF27, offset: 0xEF27, size: 0x8, addend: 0x0, symName: __ZN2yy6parser12basic_symbolINS0_7by_kindEE4moveERS3_, symObjAddr: 0x8BE0, symBinAddr: 0x10000B060, symSize: 0xA0 }
  - { offsetInCU: 0xEF5E, offset: 0xEF5E, size: 0x8, addend: 0x0, symName: __ZN2yy6parser11symbol_typeD1Ev, symObjAddr: 0x8C80, symBinAddr: 0x10000B100, symSize: 0x20 }
  - { offsetInCU: 0xEF8B, offset: 0xEF8B, size: 0x8, addend: 0x0, symName: __ZN2yy6parser5errorERKNS0_12syntax_errorE, symObjAddr: 0x8CA0, symBinAddr: 0x10000B120, symSize: 0x80 }
  - { offsetInCU: 0xEFC3, offset: 0xEFC3, size: 0x8, addend: 0x0, symName: __ZN2yy6parser10value_type7emplaceIP4NodeJEEERT_DpOT0_, symObjAddr: 0x8D30, symBinAddr: 0x10000B1B0, symSize: 0x30 }
  - { offsetInCU: 0xEFFC, offset: 0xEFFC, size: 0x8, addend: 0x0, symName: __ZN2yy6parser10value_type7emplaceINSt3__112basic_stringIcNS3_11char_traitsIcEENS3_9allocatorIcEEEEJEEERT_DpOT0_, symObjAddr: 0x8D60, symBinAddr: 0x10000B1E0, symSize: 0x30 }
  - { offsetInCU: 0xF035, offset: 0xF035, size: 0x8, addend: 0x0, symName: __ZNSt3__112basic_stringIcNS_11char_traitsIcEENS_9allocatorIcEEEC1B7v160006IDnEEPKc, symObjAddr: 0x8D90, symBinAddr: 0x10000B210, symSize: 0x30 }
  - { offsetInCU: 0xF073, offset: 0xF073, size: 0x8, addend: 0x0, symName: __ZN4NodeC1ENSt3__112basic_stringIcNS0_11char_traitsIcEENS0_9allocatorIcEEEES6_i, symObjAddr: 0x8DC0, symBinAddr: 0x10000B240, symSize: 0x30 }
  - { offsetInCU: 0xF0C9, offset: 0xF0C9, size: 0x8, addend: 0x0, symName: __ZNSt3__113basic_ostreamIcNS_11char_traitsIcEEElsB7v160006EPFRS3_S4_E, symObjAddr: 0x8E30, symBinAddr: 0x10000B2B0, symSize: 0x20 }
  - { offsetInCU: 0xF0FD, offset: 0xF0FD, size: 0x8, addend: 0x0, symName: __ZNSt3__14listIP4NodeNS_9allocatorIS2_EEE9push_backERKS2_, symObjAddr: 0x8EA0, symBinAddr: 0x10000B320, symSize: 0x100 }
  - { offsetInCU: 0xF152, offset: 0xF152, size: 0x8, addend: 0x0, symName: __ZN2yy6parser10value_type2asIP4NodeEERT_v, symObjAddr: 0x8FA0, symBinAddr: 0x10000B420, symSize: 0x20 }
  - { offsetInCU: 0xF181, offset: 0xF181, size: 0x8, addend: 0x0, symName: __ZNSt3__14listIP4NodeNS_9allocatorIS2_EEE9push_backEOS2_, symObjAddr: 0x8FC0, symBinAddr: 0x10000B440, symSize: 0xE0 }
  - { offsetInCU: 0xF1D6, offset: 0xF1D6, size: 0x8, addend: 0x0, symName: __ZN2yy6parser10value_type2asINSt3__112basic_stringIcNS3_11char_traitsIcEENS3_9allocatorIcEEEEEERT_v, symObjAddr: 0x90A0, symBinAddr: 0x10000B520, symSize: 0x20 }
  - { offsetInCU: 0xF205, offset: 0xF205, size: 0x8, addend: 0x0, symName: __ZN2yy6parser7contextC1ERKS0_RKNS0_11symbol_typeE, symObjAddr: 0x9110, symBinAddr: 0x10000B590, symSize: 0x30 }
  - { offsetInCU: 0xF250, offset: 0xF250, size: 0x8, addend: 0x0, symName: __ZNK2yy6parser11yy_destroy_INS0_7by_kindEEEvPKcRNS0_12basic_symbolIT_EE, symObjAddr: 0x9140, symBinAddr: 0x10000B5C0, symSize: 0x20 }
  - { offsetInCU: 0xF29D, offset: 0xF29D, size: 0x8, addend: 0x0, symName: __ZN2yy6parser12basic_symbolINS0_7by_kindEE5clearEv, symObjAddr: 0x9160, symBinAddr: 0x10000B5E0, symSize: 0x90 }
  - { offsetInCU: 0xF2E1, offset: 0xF2E1, size: 0x8, addend: 0x0, symName: __ZNK2yy6parser5stackINS0_17stack_symbol_typeENSt3__16vectorIS2_NS3_9allocatorIS2_EEEEE4sizeEv, symObjAddr: 0x91F0, symBinAddr: 0x10000B670, symSize: 0x20 }
  - { offsetInCU: 0xF307, offset: 0xF307, size: 0x8, addend: 0x0, symName: __ZNK2yy6parser11yy_destroy_INS0_8by_stateEEEvPKcRNS0_12basic_symbolIT_EE, symObjAddr: 0x9210, symBinAddr: 0x10000B690, symSize: 0x20 }
  - { offsetInCU: 0xF354, offset: 0xF354, size: 0x8, addend: 0x0, symName: __ZN2yy6parser10yytnamerr_EPKc, symObjAddr: 0x9230, symBinAddr: 0x10000B6B0, symSize: 0x170 }
  - { offsetInCU: 0xF3C2, offset: 0xF3C2, size: 0x8, addend: 0x0, symName: __ZNSt3__112basic_stringIcNS_11char_traitsIcEENS_9allocatorIcEEEC1B7v160006Ev, symObjAddr: 0x93A0, symBinAddr: 0x10000B820, symSize: 0x20 }
  - { offsetInCU: 0xF3EC, offset: 0xF3EC, size: 0x8, addend: 0x0, symName: __ZNSt3__112basic_stringIcNS_11char_traitsIcEENS_9allocatorIcEEEpLB7v160006Ec, symObjAddr: 0x93C0, symBinAddr: 0x10000B840, symSize: 0x30 }
  - { offsetInCU: 0xF421, offset: 0xF421, size: 0x8, addend: 0x0, symName: __ZN2yy6parser11symbol_nameENS0_11symbol_kind16symbol_kind_typeE, symObjAddr: 0x93F0, symBinAddr: 0x10000B870, symSize: 0x40 }
  - { offsetInCU: 0xF448, offset: 0xF448, size: 0x8, addend: 0x0, symName: __ZN2yy6parser7contextC2ERKS0_RKNS0_11symbol_typeE, symObjAddr: 0x9430, symBinAddr: 0x10000B8B0, symSize: 0x30 }
  - { offsetInCU: 0xF493, offset: 0xF493, size: 0x8, addend: 0x0, symName: __ZNK2yy6parser7context15expected_tokensEPNS0_11symbol_kind16symbol_kind_typeEi, symObjAddr: 0x9460, symBinAddr: 0x10000B8E0, symSize: 0x1B0 }
  - { offsetInCU: 0xF552, offset: 0xF552, size: 0x8, addend: 0x0, symName: __ZNK2yy6parser5stackINS0_17stack_symbol_typeENSt3__16vectorIS2_NS3_9allocatorIS2_EEEEEixEl, symObjAddr: 0x9610, symBinAddr: 0x10000BA90, symSize: 0x40 }
  - { offsetInCU: 0xF587, offset: 0xF587, size: 0x8, addend: 0x0, symName: __ZNK2yy6parser26yy_syntax_error_arguments_ERKNS0_7contextEPNS0_11symbol_kind16symbol_kind_typeEi, symObjAddr: 0x9650, symBinAddr: 0x10000BAD0, symSize: 0xB0 }
  - { offsetInCU: 0xF5FB, offset: 0xF5FB, size: 0x8, addend: 0x0, symName: __ZNK2yy6parser7context9lookaheadEv, symObjAddr: 0x9700, symBinAddr: 0x10000BB80, symSize: 0x20 }
  - { offsetInCU: 0xF621, offset: 0xF621, size: 0x8, addend: 0x0, symName: __ZNK2yy6parser7context5tokenEv, symObjAddr: 0x9720, symBinAddr: 0x10000BBA0, symSize: 0x20 }
  - { offsetInCU: 0xF647, offset: 0xF647, size: 0x8, addend: 0x0, symName: __ZNSt3__112basic_stringIcNS_11char_traitsIcEENS_9allocatorIcEEEpLB7v160006ERKS5_, symObjAddr: 0x99B0, symBinAddr: 0x10000BE30, symSize: 0x30 }
  - { offsetInCU: 0xF67C, offset: 0xF67C, size: 0x8, addend: 0x0, symName: __ZN2yy6parser5stackINS0_17stack_symbol_typeENSt3__16vectorIS2_NS3_9allocatorIS2_EEEEED2Ev, symObjAddr: 0x99E0, symBinAddr: 0x10000BE60, symSize: 0x20 }
  - { offsetInCU: 0xF6A9, offset: 0xF6A9, size: 0x8, addend: 0x0, symName: __ZNSt3__16vectorIN2yy6parser17stack_symbol_typeENS_9allocatorIS3_EEED1B7v160006Ev, symObjAddr: 0x9A00, symBinAddr: 0x10000BE80, symSize: 0x20 }
  - { offsetInCU: 0xF6D3, offset: 0xF6D3, size: 0x8, addend: 0x0, symName: __ZNSt3__16vectorIN2yy6parser17stack_symbol_typeENS_9allocatorIS3_EEED2B7v160006Ev, symObjAddr: 0x9A20, symBinAddr: 0x10000BEA0, symSize: 0x40 }
  - { offsetInCU: 0xF6FD, offset: 0xF6FD, size: 0x8, addend: 0x0, symName: __ZNSt3__16vectorIN2yy6parser17stack_symbol_typeENS_9allocatorIS3_EEE16__destroy_vectorC1ERS6_, symObjAddr: 0x9A60, symBinAddr: 0x10000BEE0, symSize: 0x30 }
  - { offsetInCU: 0xF736, offset: 0xF736, size: 0x8, addend: 0x0, symName: __ZNSt3__16vectorIN2yy6parser17stack_symbol_typeENS_9allocatorIS3_EEE16__destroy_vectorclB7v160006Ev, symObjAddr: 0x9A90, symBinAddr: 0x10000BF10, symSize: 0x90 }
  - { offsetInCU: 0xF75C, offset: 0xF75C, size: 0x8, addend: 0x0, symName: __ZNSt3__16vectorIN2yy6parser17stack_symbol_typeENS_9allocatorIS3_EEE16__destroy_vectorC2ERS6_, symObjAddr: 0x9B20, symBinAddr: 0x10000BFA0, symSize: 0x20 }
  - { offsetInCU: 0xF795, offset: 0xF795, size: 0x8, addend: 0x0, symName: __ZNKSt3__16vectorIN2yy6parser17stack_symbol_typeENS_9allocatorIS3_EEE17__annotate_deleteB7v160006Ev, symObjAddr: 0x9B40, symBinAddr: 0x10000BFC0, symSize: 0xB0 }
  - { offsetInCU: 0xF7BB, offset: 0xF7BB, size: 0x8, addend: 0x0, symName: __ZNSt3__16vectorIN2yy6parser17stack_symbol_typeENS_9allocatorIS3_EEE7__clearB7v160006Ev, symObjAddr: 0x9C00, symBinAddr: 0x10000C080, symSize: 0x20 }
  - { offsetInCU: 0xF7E1, offset: 0xF7E1, size: 0x8, addend: 0x0, symName: __ZNSt3__116allocator_traitsINS_9allocatorIN2yy6parser17stack_symbol_typeEEEE10deallocateB7v160006ERS5_PS4_m, symObjAddr: 0x9C20, symBinAddr: 0x10000C0A0, symSize: 0x30 }
  - { offsetInCU: 0xF823, offset: 0xF823, size: 0x8, addend: 0x0, symName: __ZNSt3__16vectorIN2yy6parser17stack_symbol_typeENS_9allocatorIS3_EEE7__allocB7v160006Ev, symObjAddr: 0x9C50, symBinAddr: 0x10000C0D0, symSize: 0x20 }
  - { offsetInCU: 0xF849, offset: 0xF849, size: 0x8, addend: 0x0, symName: __ZNKSt3__16vectorIN2yy6parser17stack_symbol_typeENS_9allocatorIS3_EEE8capacityB7v160006Ev, symObjAddr: 0x9C70, symBinAddr: 0x10000C0F0, symSize: 0x40 }
  - { offsetInCU: 0xF86F, offset: 0xF86F, size: 0x8, addend: 0x0, symName: __ZNKSt3__16vectorIN2yy6parser17stack_symbol_typeENS_9allocatorIS3_EEE31__annotate_contiguous_containerB7v160006EPKvS8_S8_S8_, symObjAddr: 0x9CB0, symBinAddr: 0x10000C130, symSize: 0x20 }
  - { offsetInCU: 0xF8C5, offset: 0xF8C5, size: 0x8, addend: 0x0, symName: __ZNKSt3__16vectorIN2yy6parser17stack_symbol_typeENS_9allocatorIS3_EEE4dataB7v160006Ev, symObjAddr: 0x9CD0, symBinAddr: 0x10000C150, symSize: 0x20 }
  - { offsetInCU: 0xF8EB, offset: 0xF8EB, size: 0x8, addend: 0x0, symName: __ZNKSt3__16vectorIN2yy6parser17stack_symbol_typeENS_9allocatorIS3_EEE4sizeB7v160006Ev, symObjAddr: 0x9CF0, symBinAddr: 0x10000C170, symSize: 0x30 }
  - { offsetInCU: 0xF911, offset: 0xF911, size: 0x8, addend: 0x0, symName: __ZNSt3__16vectorIN2yy6parser17stack_symbol_typeENS_9allocatorIS3_EEE22__base_destruct_at_endB7v160006EPS3_, symObjAddr: 0x9D30, symBinAddr: 0x10000C1B0, symSize: 0x80 }
  - { offsetInCU: 0xF955, offset: 0xF955, size: 0x8, addend: 0x0, symName: __ZNSt3__116allocator_traitsINS_9allocatorIN2yy6parser17stack_symbol_typeEEEE7destroyB7v160006IS4_vEEvRS5_PT_, symObjAddr: 0x9DB0, symBinAddr: 0x10000C230, symSize: 0x30 }
  - { offsetInCU: 0xF992, offset: 0xF992, size: 0x8, addend: 0x0, symName: __ZNSt3__19allocatorIN2yy6parser17stack_symbol_typeEE7destroyB7v160006EPS3_, symObjAddr: 0x9DE0, symBinAddr: 0x10000C260, symSize: 0x20 }
  - { offsetInCU: 0xF9C6, offset: 0xF9C6, size: 0x8, addend: 0x0, symName: __ZNSt3__19allocatorIN2yy6parser17stack_symbol_typeEE10deallocateB7v160006EPS3_m, symObjAddr: 0x9E00, symBinAddr: 0x10000C280, symSize: 0x50 }
  - { offsetInCU: 0xFA08, offset: 0xFA08, size: 0x8, addend: 0x0, symName: __ZNSt3__117__compressed_pairIPN2yy6parser17stack_symbol_typeENS_9allocatorIS3_EEE6secondB7v160006Ev, symObjAddr: 0x9EC0, symBinAddr: 0x10000C340, symSize: 0x20 }
  - { offsetInCU: 0xFA2E, offset: 0xFA2E, size: 0x8, addend: 0x0, symName: __ZNSt3__122__compressed_pair_elemINS_9allocatorIN2yy6parser17stack_symbol_typeEEELi1ELb1EE5__getB7v160006Ev, symObjAddr: 0x9EE0, symBinAddr: 0x10000C360, symSize: 0x10 }
  - { offsetInCU: 0xFA54, offset: 0xFA54, size: 0x8, addend: 0x0, symName: __ZNKSt3__16vectorIN2yy6parser17stack_symbol_typeENS_9allocatorIS3_EEE9__end_capB7v160006Ev, symObjAddr: 0x9EF0, symBinAddr: 0x10000C370, symSize: 0x20 }
  - { offsetInCU: 0xFA7A, offset: 0xFA7A, size: 0x8, addend: 0x0, symName: __ZNKSt3__117__compressed_pairIPN2yy6parser17stack_symbol_typeENS_9allocatorIS3_EEE5firstB7v160006Ev, symObjAddr: 0x9F10, symBinAddr: 0x10000C390, symSize: 0x20 }
  - { offsetInCU: 0xFAA0, offset: 0xFAA0, size: 0x8, addend: 0x0, symName: __ZNKSt3__122__compressed_pair_elemIPN2yy6parser17stack_symbol_typeELi0ELb0EE5__getB7v160006Ev, symObjAddr: 0x9F30, symBinAddr: 0x10000C3B0, symSize: 0x10 }
  - { offsetInCU: 0xFAC6, offset: 0xFAC6, size: 0x8, addend: 0x0, symName: __ZN2yy6parser17stack_symbol_typeD2Ev, symObjAddr: 0x9F40, symBinAddr: 0x10000C3C0, symSize: 0x20 }
  - { offsetInCU: 0xFAF3, offset: 0xFAF3, size: 0x8, addend: 0x0, symName: __ZN2yy6parser11symbol_typeC2Ev, symObjAddr: 0x9F60, symBinAddr: 0x10000C3E0, symSize: 0x20 }
  - { offsetInCU: 0xFB1D, offset: 0xFB1D, size: 0x8, addend: 0x0, symName: __ZN2yy6parser12basic_symbolINS0_7by_kindEEC2Ev, symObjAddr: 0x9F80, symBinAddr: 0x10000C400, symSize: 0x30 }
  - { offsetInCU: 0xFB47, offset: 0xFB47, size: 0x8, addend: 0x0, symName: __ZN2yy6parser7by_kindC2Ev, symObjAddr: 0x9FB0, symBinAddr: 0x10000C430, symSize: 0x20 }
  - { offsetInCU: 0xFB73, offset: 0xFB73, size: 0x8, addend: 0x0, symName: __ZN2yy6parser10value_typeC1Ev, symObjAddr: 0x9FD0, symBinAddr: 0x10000C450, symSize: 0x20 }
  - { offsetInCU: 0xFB9D, offset: 0xFB9D, size: 0x8, addend: 0x0, symName: __ZN2yy6parser10value_typeC2Ev, symObjAddr: 0x9FF0, symBinAddr: 0x10000C470, symSize: 0x30 }
  - { offsetInCU: 0xFBC7, offset: 0xFBC7, size: 0x8, addend: 0x0, symName: __ZN2yy6parser11symbol_typeD2Ev, symObjAddr: 0xA020, symBinAddr: 0x10000C4A0, symSize: 0x20 }
  - { offsetInCU: 0xFBF4, offset: 0xFBF4, size: 0x8, addend: 0x0, symName: __ZN2yy6parser12basic_symbolINS0_7by_kindEED2Ev, symObjAddr: 0xA040, symBinAddr: 0x10000C4C0, symSize: 0x30 }
  - { offsetInCU: 0xFC1E, offset: 0xFC1E, size: 0x8, addend: 0x0, symName: __ZN2yy6parser10value_typeD1Ev, symObjAddr: 0xA070, symBinAddr: 0x10000C4F0, symSize: 0x20 }
  - { offsetInCU: 0xFC48, offset: 0xFC48, size: 0x8, addend: 0x0, symName: __ZN2yy6parser10value_typeD2Ev, symObjAddr: 0xA090, symBinAddr: 0x10000C510, symSize: 0x10 }
  - { offsetInCU: 0xFC72, offset: 0xFC72, size: 0x8, addend: 0x0, symName: __ZN4NodeC2ENSt3__112basic_stringIcNS0_11char_traitsIcEENS0_9allocatorIcEEEES6_i, symObjAddr: 0xA0A0, symBinAddr: 0x10000C520, symSize: 0x80 }
  - { offsetInCU: 0xFCC8, offset: 0xFCC8, size: 0x8, addend: 0x0, symName: __ZNSt3__14listIP4NodeNS_9allocatorIS2_EEEC1B7v160006Ev, symObjAddr: 0xA120, symBinAddr: 0x10000C5A0, symSize: 0x20 }
  - { offsetInCU: 0xFCF2, offset: 0xFCF2, size: 0x8, addend: 0x0, symName: __ZNSt3__14listIP4NodeNS_9allocatorIS2_EEEC2B7v160006Ev, symObjAddr: 0xA140, symBinAddr: 0x10000C5C0, symSize: 0x40 }
  - { offsetInCU: 0xFD1C, offset: 0xFD1C, size: 0x8, addend: 0x0, symName: __ZNSt3__110__list_impIP4NodeNS_9allocatorIS2_EEEC2Ev, symObjAddr: 0xA180, symBinAddr: 0x10000C600, symSize: 0x50 }
  - { offsetInCU: 0xFD48, offset: 0xFD48, size: 0x8, addend: 0x0, symName: __ZNSt3__116__list_node_baseIP4NodePvEC1B7v160006Ev, symObjAddr: 0xA1E0, symBinAddr: 0x10000C660, symSize: 0x20 }
  - { offsetInCU: 0xFD7C, offset: 0xFD7C, size: 0x8, addend: 0x0, symName: __ZNSt3__117__compressed_pairImNS_9allocatorINS_11__list_nodeIP4NodePvEEEEEC1B7v160006IiNS_18__default_init_tagEEEOT_OT0_, symObjAddr: 0xA200, symBinAddr: 0x10000C680, symSize: 0x30 }
  - { offsetInCU: 0xFDD4, offset: 0xFDD4, size: 0x8, addend: 0x0, symName: __ZNSt3__116__list_node_baseIP4NodePvEC2B7v160006Ev, symObjAddr: 0xA230, symBinAddr: 0x10000C6B0, symSize: 0x50 }
  - { offsetInCU: 0xFDFE, offset: 0xFDFE, size: 0x8, addend: 0x0, symName: __ZNSt3__126__list_node_pointer_traitsIP4NodePvE26__unsafe_link_pointer_castB7v160006EPNS_16__list_node_baseIS2_S3_EE, symObjAddr: 0xA280, symBinAddr: 0x10000C700, symSize: 0x10 }
  - { offsetInCU: 0xFE22, offset: 0xFE22, size: 0x8, addend: 0x0, symName: __ZNSt3__116__list_node_baseIP4NodePvE6__selfB7v160006Ev, symObjAddr: 0xA290, symBinAddr: 0x10000C710, symSize: 0x20 }
  - { offsetInCU: 0xFE4D, offset: 0xFE4D, size: 0x8, addend: 0x0, symName: __ZNSt3__114pointer_traitsIPNS_16__list_node_baseIP4NodePvEEE10pointer_toB7v160006ERS5_, symObjAddr: 0xA2B0, symBinAddr: 0x10000C730, symSize: 0x10 }
  - { offsetInCU: 0xFE70, offset: 0xFE70, size: 0x8, addend: 0x0, symName: __ZNSt3__117__compressed_pairImNS_9allocatorINS_11__list_nodeIP4NodePvEEEEEC2B7v160006IiNS_18__default_init_tagEEEOT_OT0_, symObjAddr: 0xA2C0, symBinAddr: 0x10000C740, symSize: 0x40 }
  - { offsetInCU: 0xFEC8, offset: 0xFEC8, size: 0x8, addend: 0x0, symName: __ZNSt3__122__compressed_pair_elemImLi0ELb0EEC2B7v160006IivEEOT_, symObjAddr: 0xA300, symBinAddr: 0x10000C780, symSize: 0x20 }
  - { offsetInCU: 0xFF0A, offset: 0xFF0A, size: 0x8, addend: 0x0, symName: __ZNSt3__122__compressed_pair_elemINS_9allocatorINS_11__list_nodeIP4NodePvEEEELi1ELb1EEC2B7v160006ENS_18__default_init_tagE, symObjAddr: 0xA320, symBinAddr: 0x10000C7A0, symSize: 0x20 }
  - { offsetInCU: 0xFF3F, offset: 0xFF3F, size: 0x8, addend: 0x0, symName: __ZNSt3__19allocatorINS_11__list_nodeIP4NodePvEEEC2B7v160006Ev, symObjAddr: 0xA340, symBinAddr: 0x10000C7C0, symSize: 0x20 }
  - { offsetInCU: 0xFF69, offset: 0xFF69, size: 0x8, addend: 0x0, symName: __ZNSt3__116__non_trivial_ifILb1ENS_9allocatorINS_11__list_nodeIP4NodePvEEEEEC2B7v160006Ev, symObjAddr: 0xA360, symBinAddr: 0x10000C7E0, symSize: 0x10 }
  - { offsetInCU: 0xFF93, offset: 0xFF93, size: 0x8, addend: 0x0, symName: __ZNSt3__112basic_stringIcNS_11char_traitsIcEENS_9allocatorIcEEEC2B7v160006Ev, symObjAddr: 0xA370, symBinAddr: 0x10000C7F0, symSize: 0x50 }
  - { offsetInCU: 0xFFBD, offset: 0xFFBD, size: 0x8, addend: 0x0, symName: __ZNSt3__117__compressed_pairINS_12basic_stringIcNS_11char_traitsIcEENS_9allocatorIcEEE5__repES5_EC1B7v160006INS_18__default_init_tagESA_EEOT_OT0_, symObjAddr: 0xA3C0, symBinAddr: 0x10000C840, symSize: 0x30 }
  - { offsetInCU: 0x10015, offset: 0x10015, size: 0x8, addend: 0x0, symName: __ZNSt3__112basic_stringIcNS_11char_traitsIcEENS_9allocatorIcEEE14__default_initB7v160006Ev, symObjAddr: 0xA400, symBinAddr: 0x10000C880, symSize: 0x50 }
  - { offsetInCU: 0x1003B, offset: 0x1003B, size: 0x8, addend: 0x0, symName: __ZNSt3__117__compressed_pairINS_12basic_stringIcNS_11char_traitsIcEENS_9allocatorIcEEE5__repES5_EC2B7v160006INS_18__default_init_tagESA_EEOT_OT0_, symObjAddr: 0xA450, symBinAddr: 0x10000C8D0, symSize: 0x30 }
  - { offsetInCU: 0x10093, offset: 0x10093, size: 0x8, addend: 0x0, symName: __ZNSt3__122__compressed_pair_elemINS_12basic_stringIcNS_11char_traitsIcEENS_9allocatorIcEEE5__repELi0ELb0EEC2B7v160006ENS_18__default_init_tagE, symObjAddr: 0xA480, symBinAddr: 0x10000C900, symSize: 0x10 }
  - { offsetInCU: 0x100C8, offset: 0x100C8, size: 0x8, addend: 0x0, symName: __ZNSt3__122__compressed_pair_elemINS_9allocatorIcEELi1ELb1EEC2B7v160006ENS_18__default_init_tagE, symObjAddr: 0xA490, symBinAddr: 0x10000C910, symSize: 0x20 }
  - { offsetInCU: 0x100FD, offset: 0x100FD, size: 0x8, addend: 0x0, symName: __ZNSt3__19allocatorIcEC2B7v160006Ev, symObjAddr: 0xA4B0, symBinAddr: 0x10000C930, symSize: 0x20 }
  - { offsetInCU: 0x10127, offset: 0x10127, size: 0x8, addend: 0x0, symName: __ZNSt3__116__non_trivial_ifILb1ENS_9allocatorIcEEEC2B7v160006Ev, symObjAddr: 0xA4D0, symBinAddr: 0x10000C950, symSize: 0x10 }
  - { offsetInCU: 0x10151, offset: 0x10151, size: 0x8, addend: 0x0, symName: __ZNSt3__117__compressed_pairINS_12basic_stringIcNS_11char_traitsIcEENS_9allocatorIcEEE5__repES5_E5firstB7v160006Ev, symObjAddr: 0xA4E0, symBinAddr: 0x10000C960, symSize: 0x20 }
  - { offsetInCU: 0x10177, offset: 0x10177, size: 0x8, addend: 0x0, symName: __ZNSt3__122__compressed_pair_elemINS_12basic_stringIcNS_11char_traitsIcEENS_9allocatorIcEEE5__repELi0ELb0EE5__getB7v160006Ev, symObjAddr: 0xA500, symBinAddr: 0x10000C980, symSize: 0x10 }
  - { offsetInCU: 0x1019D, offset: 0x1019D, size: 0x8, addend: 0x0, symName: __ZNSt3__112basic_stringIcNS_11char_traitsIcEENS_9allocatorIcEEE6appendB7v160006ERKS5_, symObjAddr: 0xA510, symBinAddr: 0x10000C990, symSize: 0x50 }
  - { offsetInCU: 0x101D2, offset: 0x101D2, size: 0x8, addend: 0x0, symName: __ZNKSt3__112basic_stringIcNS_11char_traitsIcEENS_9allocatorIcEEE4dataB7v160006Ev, symObjAddr: 0xA560, symBinAddr: 0x10000C9E0, symSize: 0x30 }
  - { offsetInCU: 0x101F8, offset: 0x101F8, size: 0x8, addend: 0x0, symName: __ZNKSt3__112basic_stringIcNS_11char_traitsIcEENS_9allocatorIcEEE4sizeB7v160006Ev, symObjAddr: 0xA590, symBinAddr: 0x10000CA10, symSize: 0x50 }
  - { offsetInCU: 0x1021E, offset: 0x1021E, size: 0x8, addend: 0x0, symName: __ZNKSt3__112basic_stringIcNS_11char_traitsIcEENS_9allocatorIcEEE13__get_pointerB7v160006Ev, symObjAddr: 0xA5F0, symBinAddr: 0x10000CA70, symSize: 0x50 }
  - { offsetInCU: 0x10244, offset: 0x10244, size: 0x8, addend: 0x0, symName: __ZNKSt3__112basic_stringIcNS_11char_traitsIcEENS_9allocatorIcEEE9__is_longB7v160006Ev, symObjAddr: 0xA640, symBinAddr: 0x10000CAC0, symSize: 0x30 }
  - { offsetInCU: 0x1026A, offset: 0x1026A, size: 0x8, addend: 0x0, symName: __ZNKSt3__112basic_stringIcNS_11char_traitsIcEENS_9allocatorIcEEE18__get_long_pointerB7v160006Ev, symObjAddr: 0xA670, symBinAddr: 0x10000CAF0, symSize: 0x20 }
  - { offsetInCU: 0x10290, offset: 0x10290, size: 0x8, addend: 0x0, symName: __ZNKSt3__112basic_stringIcNS_11char_traitsIcEENS_9allocatorIcEEE19__get_short_pointerB7v160006Ev, symObjAddr: 0xA690, symBinAddr: 0x10000CB10, symSize: 0x30 }
  - { offsetInCU: 0x102B6, offset: 0x102B6, size: 0x8, addend: 0x0, symName: __ZNKSt3__117__compressed_pairINS_12basic_stringIcNS_11char_traitsIcEENS_9allocatorIcEEE5__repES5_E5firstB7v160006Ev, symObjAddr: 0xA6C0, symBinAddr: 0x10000CB40, symSize: 0x20 }
  - { offsetInCU: 0x102DC, offset: 0x102DC, size: 0x8, addend: 0x0, symName: __ZNKSt3__122__compressed_pair_elemINS_12basic_stringIcNS_11char_traitsIcEENS_9allocatorIcEEE5__repELi0ELb0EE5__getB7v160006Ev, symObjAddr: 0xA6E0, symBinAddr: 0x10000CB60, symSize: 0x10 }
  - { offsetInCU: 0x10302, offset: 0x10302, size: 0x8, addend: 0x0, symName: __ZNSt3__114pointer_traitsIPKcE10pointer_toB7v160006ERS1_, symObjAddr: 0xA6F0, symBinAddr: 0x10000CB70, symSize: 0x10 }
  - { offsetInCU: 0x10325, offset: 0x10325, size: 0x8, addend: 0x0, symName: __ZNKSt3__112basic_stringIcNS_11char_traitsIcEENS_9allocatorIcEEE15__get_long_sizeB7v160006Ev, symObjAddr: 0xA700, symBinAddr: 0x10000CB80, symSize: 0x20 }
  - { offsetInCU: 0x1034B, offset: 0x1034B, size: 0x8, addend: 0x0, symName: __ZNKSt3__112basic_stringIcNS_11char_traitsIcEENS_9allocatorIcEEE16__get_short_sizeB7v160006Ev, symObjAddr: 0xA720, symBinAddr: 0x10000CBA0, symSize: 0x30 }
  - { offsetInCU: 0x10371, offset: 0x10371, size: 0x8, addend: 0x0, symName: __ZNSt3__111char_traitsIcE6lengthEPKc, symObjAddr: 0xA940, symBinAddr: 0x10000CDC0, symSize: 0x30 }
  - { offsetInCU: 0x103B2, offset: 0x103B2, size: 0x8, addend: 0x0, symName: __ZNKSt3__113basic_ostreamIcNS_11char_traitsIcEEE6sentrycvbB7v160006Ev, symObjAddr: 0xA970, symBinAddr: 0x10000CDF0, symSize: 0x20 }
  - { offsetInCU: 0x103D8, offset: 0x103D8, size: 0x8, addend: 0x0, symName: __ZNSt3__119ostreambuf_iteratorIcNS_11char_traitsIcEEEC1B7v160006ERNS_13basic_ostreamIcS2_EE, symObjAddr: 0xABB0, symBinAddr: 0x10000D030, symSize: 0x30 }
  - { offsetInCU: 0x10410, offset: 0x10410, size: 0x8, addend: 0x0, symName: __ZNKSt3__18ios_base5flagsB7v160006Ev, symObjAddr: 0xABE0, symBinAddr: 0x10000D060, symSize: 0x20 }
  - { offsetInCU: 0x10438, offset: 0x10438, size: 0x8, addend: 0x0, symName: __ZNKSt3__19basic_iosIcNS_11char_traitsIcEEE4fillB7v160006Ev, symObjAddr: 0xAC00, symBinAddr: 0x10000D080, symSize: 0x70 }
  - { offsetInCU: 0x10460, offset: 0x10460, size: 0x8, addend: 0x0, symName: __ZNKSt3__119ostreambuf_iteratorIcNS_11char_traitsIcEEE6failedB7v160006Ev, symObjAddr: 0xAC70, symBinAddr: 0x10000D0F0, symSize: 0x20 }
  - { offsetInCU: 0x10486, offset: 0x10486, size: 0x8, addend: 0x0, symName: __ZNSt3__19basic_iosIcNS_11char_traitsIcEEE8setstateB7v160006Ej, symObjAddr: 0xAC90, symBinAddr: 0x10000D110, symSize: 0x30 }
  - { offsetInCU: 0x104BB, offset: 0x104BB, size: 0x8, addend: 0x0, symName: __ZNKSt3__18ios_base5widthB7v160006Ev, symObjAddr: 0xACC0, symBinAddr: 0x10000D140, symSize: 0x20 }
  - { offsetInCU: 0x104E3, offset: 0x104E3, size: 0x8, addend: 0x0, symName: __ZNSt3__115basic_streambufIcNS_11char_traitsIcEEE5sputnB7v160006EPKcl, symObjAddr: 0xACE0, symBinAddr: 0x10000D160, symSize: 0x30 }
  - { offsetInCU: 0x10525, offset: 0x10525, size: 0x8, addend: 0x0, symName: __ZNSt3__112basic_stringIcNS_11char_traitsIcEENS_9allocatorIcEEEC1B7v160006Emc, symObjAddr: 0xAD10, symBinAddr: 0x10000D190, symSize: 0x30 }
  - { offsetInCU: 0x1056D, offset: 0x1056D, size: 0x8, addend: 0x0, symName: __ZNSt3__18ios_base5widthB7v160006El, symObjAddr: 0xAD40, symBinAddr: 0x10000D1C0, symSize: 0x30 }
  - { offsetInCU: 0x105B3, offset: 0x105B3, size: 0x8, addend: 0x0, symName: __ZNSt3__112basic_stringIcNS_11char_traitsIcEENS_9allocatorIcEEEC2B7v160006Emc, symObjAddr: 0xAD70, symBinAddr: 0x10000D1F0, symSize: 0x50 }
  - { offsetInCU: 0x105FB, offset: 0x105FB, size: 0x8, addend: 0x0, symName: __ZNSt3__119ostreambuf_iteratorIcNS_11char_traitsIcEEEC2B7v160006ERNS_13basic_ostreamIcS2_EE, symObjAddr: 0xADC0, symBinAddr: 0x10000D240, symSize: 0x50 }
  - { offsetInCU: 0x10633, offset: 0x10633, size: 0x8, addend: 0x0, symName: __ZNKSt3__19basic_iosIcNS_11char_traitsIcEEE5rdbufB7v160006Ev, symObjAddr: 0xAE10, symBinAddr: 0x10000D290, symSize: 0x20 }
  - { offsetInCU: 0x1065B, offset: 0x1065B, size: 0x8, addend: 0x0, symName: __ZNKSt3__18ios_base5rdbufB7v160006Ev, symObjAddr: 0xAE30, symBinAddr: 0x10000D2B0, symSize: 0x20 }
  - { offsetInCU: 0x10681, offset: 0x10681, size: 0x8, addend: 0x0, symName: __ZNSt3__111char_traitsIcE11eq_int_typeEii, symObjAddr: 0xAE50, symBinAddr: 0x10000D2D0, symSize: 0x20 }
  - { offsetInCU: 0x106B2, offset: 0x106B2, size: 0x8, addend: 0x0, symName: __ZNSt3__111char_traitsIcE3eofEv, symObjAddr: 0xAE70, symBinAddr: 0x10000D2F0, symSize: 0x10 }
  - { offsetInCU: 0x106C6, offset: 0x106C6, size: 0x8, addend: 0x0, symName: __ZNKSt3__19basic_iosIcNS_11char_traitsIcEEE5widenB7v160006Ec, symObjAddr: 0xAE80, symBinAddr: 0x10000D300, symSize: 0x80 }
  - { offsetInCU: 0x10734, offset: 0x10734, size: 0x8, addend: 0x0, symName: __ZNKSt3__15ctypeIcE5widenB7v160006Ec, symObjAddr: 0xAF30, symBinAddr: 0x10000D3B0, symSize: 0x30 }
  - { offsetInCU: 0x10769, offset: 0x10769, size: 0x8, addend: 0x0, symName: __ZNSt3__18ios_base8setstateB7v160006Ej, symObjAddr: 0xAF60, symBinAddr: 0x10000D3E0, symSize: 0x30 }
  - { offsetInCU: 0x107A0, offset: 0x107A0, size: 0x8, addend: 0x0, symName: __ZNSt3__112basic_stringIcNS_11char_traitsIcEENS_9allocatorIcEEEC2B7v160006IDnEEPKc, symObjAddr: 0xAFB0, symBinAddr: 0x10000D430, symSize: 0x60 }
  - { offsetInCU: 0x107DE, offset: 0x107DE, size: 0x8, addend: 0x0, symName: __ZN2yy6parser5stackINS0_17stack_symbol_typeENSt3__16vectorIS2_NS3_9allocatorIS2_EEEEEC2Em, symObjAddr: 0xB010, symBinAddr: 0x10000D490, symSize: 0x30 }
  - { offsetInCU: 0x10817, offset: 0x10817, size: 0x8, addend: 0x0, symName: __ZNSt3__16vectorIN2yy6parser17stack_symbol_typeENS_9allocatorIS3_EEEC1Em, symObjAddr: 0xB040, symBinAddr: 0x10000D4C0, symSize: 0x30 }
  - { offsetInCU: 0x10852, offset: 0x10852, size: 0x8, addend: 0x0, symName: __ZNSt3__16vectorIN2yy6parser17stack_symbol_typeENS_9allocatorIS3_EEEC2Em, symObjAddr: 0xB070, symBinAddr: 0x10000D4F0, symSize: 0xE0 }
  - { offsetInCU: 0x108A7, offset: 0x108A7, size: 0x8, addend: 0x0, symName: __ZNSt3__117__compressed_pairIPN2yy6parser17stack_symbol_typeENS_9allocatorIS3_EEEC1B7v160006IDnNS_18__default_init_tagEEEOT_OT0_, symObjAddr: 0xB150, symBinAddr: 0x10000D5D0, symSize: 0x30 }
  - { offsetInCU: 0x108FF, offset: 0x108FF, size: 0x8, addend: 0x0, symName: __ZNSt3__16vectorIN2yy6parser17stack_symbol_typeENS_9allocatorIS3_EEE11__vallocateB7v160006Em, symObjAddr: 0xB1D0, symBinAddr: 0x10000D650, symSize: 0xA0 }
  - { offsetInCU: 0x10943, offset: 0x10943, size: 0x8, addend: 0x0, symName: __ZNSt3__16vectorIN2yy6parser17stack_symbol_typeENS_9allocatorIS3_EEE18__construct_at_endEm, symObjAddr: 0xB270, symBinAddr: 0x10000D6F0, symSize: 0xC0 }
  - { offsetInCU: 0x109B6, offset: 0x109B6, size: 0x8, addend: 0x0, symName: __ZNSt3__128__exception_guard_exceptionsINS_6vectorIN2yy6parser17stack_symbol_typeENS_9allocatorIS4_EEE16__destroy_vectorEE10__completeB7v160006Ev, symObjAddr: 0xB330, symBinAddr: 0x10000D7B0, symSize: 0x20 }
  - { offsetInCU: 0x109DC, offset: 0x109DC, size: 0x8, addend: 0x0, symName: __ZNSt3__128__exception_guard_exceptionsINS_6vectorIN2yy6parser17stack_symbol_typeENS_9allocatorIS4_EEE16__destroy_vectorEED1B7v160006Ev, symObjAddr: 0xB350, symBinAddr: 0x10000D7D0, symSize: 0x20 }
  - { offsetInCU: 0x10A06, offset: 0x10A06, size: 0x8, addend: 0x0, symName: __ZNSt3__117__compressed_pairIPN2yy6parser17stack_symbol_typeENS_9allocatorIS3_EEEC2B7v160006IDnNS_18__default_init_tagEEEOT_OT0_, symObjAddr: 0xB370, symBinAddr: 0x10000D7F0, symSize: 0x40 }
  - { offsetInCU: 0x10A5E, offset: 0x10A5E, size: 0x8, addend: 0x0, symName: __ZNSt3__122__compressed_pair_elemIPN2yy6parser17stack_symbol_typeELi0ELb0EEC2B7v160006IDnvEEOT_, symObjAddr: 0xB3B0, symBinAddr: 0x10000D830, symSize: 0x20 }
  - { offsetInCU: 0x10AA0, offset: 0x10AA0, size: 0x8, addend: 0x0, symName: __ZNSt3__122__compressed_pair_elemINS_9allocatorIN2yy6parser17stack_symbol_typeEEELi1ELb1EEC2B7v160006ENS_18__default_init_tagE, symObjAddr: 0xB3D0, symBinAddr: 0x10000D850, symSize: 0x20 }
  - { offsetInCU: 0x10AD5, offset: 0x10AD5, size: 0x8, addend: 0x0, symName: __ZNSt3__19allocatorIN2yy6parser17stack_symbol_typeEEC2B7v160006Ev, symObjAddr: 0xB3F0, symBinAddr: 0x10000D870, symSize: 0x20 }
  - { offsetInCU: 0x10AFF, offset: 0x10AFF, size: 0x8, addend: 0x0, symName: __ZNSt3__116__non_trivial_ifILb1ENS_9allocatorIN2yy6parser17stack_symbol_typeEEEEC2B7v160006Ev, symObjAddr: 0xB410, symBinAddr: 0x10000D890, symSize: 0x10 }
  - { offsetInCU: 0x10B29, offset: 0x10B29, size: 0x8, addend: 0x0, symName: __ZNSt3__128__exception_guard_exceptionsINS_6vectorIN2yy6parser17stack_symbol_typeENS_9allocatorIS4_EEE16__destroy_vectorEEC1B7v160006ES8_, symObjAddr: 0xB420, symBinAddr: 0x10000D8A0, symSize: 0x30 }
  - { offsetInCU: 0x10B61, offset: 0x10B61, size: 0x8, addend: 0x0, symName: __ZNSt3__128__exception_guard_exceptionsINS_6vectorIN2yy6parser17stack_symbol_typeENS_9allocatorIS4_EEE16__destroy_vectorEEC2B7v160006ES8_, symObjAddr: 0xB450, symBinAddr: 0x10000D8D0, symSize: 0x20 }
  - { offsetInCU: 0x10B99, offset: 0x10B99, size: 0x8, addend: 0x0, symName: __ZNKSt3__16vectorIN2yy6parser17stack_symbol_typeENS_9allocatorIS3_EEE8max_sizeEv, symObjAddr: 0xB470, symBinAddr: 0x10000D8F0, symSize: 0x60 }
  - { offsetInCU: 0x10BC1, offset: 0x10BC1, size: 0x8, addend: 0x0, symName: __ZNKSt3__16vectorIN2yy6parser17stack_symbol_typeENS_9allocatorIS3_EEE20__throw_length_errorB7v160006Ev, symObjAddr: 0xB4D0, symBinAddr: 0x10000D950, symSize: 0x20 }
  - { offsetInCU: 0x10BE7, offset: 0x10BE7, size: 0x8, addend: 0x0, symName: __ZNSt3__16vectorIN2yy6parser17stack_symbol_typeENS_9allocatorIS3_EEE9__end_capB7v160006Ev, symObjAddr: 0xB530, symBinAddr: 0x10000D9B0, symSize: 0x20 }
  - { offsetInCU: 0x10C0D, offset: 0x10C0D, size: 0x8, addend: 0x0, symName: __ZNKSt3__16vectorIN2yy6parser17stack_symbol_typeENS_9allocatorIS3_EEE14__annotate_newB7v160006Em, symObjAddr: 0xB550, symBinAddr: 0x10000D9D0, symSize: 0xA0 }
  - { offsetInCU: 0x10C4C, offset: 0x10C4C, size: 0x8, addend: 0x0, symName: __ZNSt3__116allocator_traitsINS_9allocatorIN2yy6parser17stack_symbol_typeEEEE8max_sizeB7v160006IS5_vEEmRKS5_, symObjAddr: 0xB620, symBinAddr: 0x10000DAA0, symSize: 0x20 }
  - { offsetInCU: 0x10C7A, offset: 0x10C7A, size: 0x8, addend: 0x0, symName: __ZNKSt3__16vectorIN2yy6parser17stack_symbol_typeENS_9allocatorIS3_EEE7__allocB7v160006Ev, symObjAddr: 0xB640, symBinAddr: 0x10000DAC0, symSize: 0x20 }
  - { offsetInCU: 0x10CA0, offset: 0x10CA0, size: 0x8, addend: 0x0, symName: __ZNSt3__114numeric_limitsIlE3maxB7v160006Ev, symObjAddr: 0xB660, symBinAddr: 0x10000DAE0, symSize: 0x10 }
  - { offsetInCU: 0x10CBE, offset: 0x10CBE, size: 0x8, addend: 0x0, symName: __ZNKSt3__16__lessImmEclB7v160006ERKmS3_, symObjAddr: 0xB6C0, symBinAddr: 0x10000DB40, symSize: 0x30 }
  - { offsetInCU: 0x10D00, offset: 0x10D00, size: 0x8, addend: 0x0, symName: __ZNKSt3__19allocatorIN2yy6parser17stack_symbol_typeEE8max_sizeB7v160006Ev, symObjAddr: 0xB6F0, symBinAddr: 0x10000DB70, symSize: 0x20 }
  - { offsetInCU: 0x10D26, offset: 0x10D26, size: 0x8, addend: 0x0, symName: __ZNKSt3__117__compressed_pairIPN2yy6parser17stack_symbol_typeENS_9allocatorIS3_EEE6secondB7v160006Ev, symObjAddr: 0xB710, symBinAddr: 0x10000DB90, symSize: 0x20 }
  - { offsetInCU: 0x10D4C, offset: 0x10D4C, size: 0x8, addend: 0x0, symName: __ZNKSt3__122__compressed_pair_elemINS_9allocatorIN2yy6parser17stack_symbol_typeEEELi1ELb1EE5__getB7v160006Ev, symObjAddr: 0xB730, symBinAddr: 0x10000DBB0, symSize: 0x10 }
  - { offsetInCU: 0x10D72, offset: 0x10D72, size: 0x8, addend: 0x0, symName: __ZNSt3__123__libcpp_numeric_limitsIlLb1EE3maxB7v160006Ev, symObjAddr: 0xB740, symBinAddr: 0x10000DBC0, symSize: 0x10 }
  - { offsetInCU: 0x10D86, offset: 0x10D86, size: 0x8, addend: 0x0, symName: __ZNSt12length_errorC1B7v160006EPKc, symObjAddr: 0xB7C0, symBinAddr: 0x10000DC40, symSize: 0x30 }
  - { offsetInCU: 0x10DBE, offset: 0x10DBE, size: 0x8, addend: 0x0, symName: __ZNSt12length_errorC2B7v160006EPKc, symObjAddr: 0xB7F0, symBinAddr: 0x10000DC70, symSize: 0x40 }
  - { offsetInCU: 0x10DF6, offset: 0x10DF6, size: 0x8, addend: 0x0, symName: __ZNSt3__19allocatorIN2yy6parser17stack_symbol_typeEE8allocateB7v160006Em, symObjAddr: 0xB830, symBinAddr: 0x10000DCB0, symSize: 0x50 }
  - { offsetInCU: 0x10E2A, offset: 0x10E2A, size: 0x8, addend: 0x0, symName: __ZNSt3__117__compressed_pairIPN2yy6parser17stack_symbol_typeENS_9allocatorIS3_EEE5firstB7v160006Ev, symObjAddr: 0xB900, symBinAddr: 0x10000DD80, symSize: 0x20 }
  - { offsetInCU: 0x10E50, offset: 0x10E50, size: 0x8, addend: 0x0, symName: __ZNSt3__122__compressed_pair_elemIPN2yy6parser17stack_symbol_typeELi0ELb0EE5__getB7v160006Ev, symObjAddr: 0xB920, symBinAddr: 0x10000DDA0, symSize: 0x10 }
  - { offsetInCU: 0x10E8F, offset: 0x10E8F, size: 0x8, addend: 0x0, symName: __ZNSt3__16vectorIN2yy6parser17stack_symbol_typeENS_9allocatorIS3_EEE21_ConstructTransactionC1B7v160006ERS6_m, symObjAddr: 0xB930, symBinAddr: 0x10000DDB0, symSize: 0x30 }
  - { offsetInCU: 0x10ED7, offset: 0x10ED7, size: 0x8, addend: 0x0, symName: __ZNSt3__116allocator_traitsINS_9allocatorIN2yy6parser17stack_symbol_typeEEEE9constructB7v160006IS4_JEvEEvRS5_PT_DpOT0_, symObjAddr: 0xB960, symBinAddr: 0x10000DDE0, symSize: 0x30 }
  - { offsetInCU: 0x10F19, offset: 0x10F19, size: 0x8, addend: 0x0, symName: __ZNSt3__16vectorIN2yy6parser17stack_symbol_typeENS_9allocatorIS3_EEE21_ConstructTransactionD1B7v160006Ev, symObjAddr: 0xB990, symBinAddr: 0x10000DE10, symSize: 0x20 }
  - { offsetInCU: 0x10F43, offset: 0x10F43, size: 0x8, addend: 0x0, symName: __ZNSt3__16vectorIN2yy6parser17stack_symbol_typeENS_9allocatorIS3_EEE21_ConstructTransactionC2B7v160006ERS6_m, symObjAddr: 0xB9B0, symBinAddr: 0x10000DE30, symSize: 0x40 }
  - { offsetInCU: 0x10F8B, offset: 0x10F8B, size: 0x8, addend: 0x0, symName: __ZNSt3__19allocatorIN2yy6parser17stack_symbol_typeEE9constructB7v160006IS3_JEEEvPT_DpOT0_, symObjAddr: 0xB9F0, symBinAddr: 0x10000DE70, symSize: 0x20 }
  - { offsetInCU: 0x10FCD, offset: 0x10FCD, size: 0x8, addend: 0x0, symName: __ZNSt3__16vectorIN2yy6parser17stack_symbol_typeENS_9allocatorIS3_EEE21_ConstructTransactionD2B7v160006Ev, symObjAddr: 0xBA10, symBinAddr: 0x10000DE90, symSize: 0x20 }
  - { offsetInCU: 0x10FF7, offset: 0x10FF7, size: 0x8, addend: 0x0, symName: __ZNSt3__128__exception_guard_exceptionsINS_6vectorIN2yy6parser17stack_symbol_typeENS_9allocatorIS4_EEE16__destroy_vectorEED2B7v160006Ev, symObjAddr: 0xBA30, symBinAddr: 0x10000DEB0, symSize: 0x40 }
  - { offsetInCU: 0x11021, offset: 0x11021, size: 0x8, addend: 0x0, symName: __ZN2yy6parser12basic_symbolINS0_8by_stateEE5clearEv, symObjAddr: 0xBA70, symBinAddr: 0x10000DEF0, symSize: 0xA0 }
  - { offsetInCU: 0x11065, offset: 0x11065, size: 0x8, addend: 0x0, symName: __ZN2yy6parser10value_type7destroyIP4NodeEEvv, symObjAddr: 0xBB10, symBinAddr: 0x10000DF90, symSize: 0x20 }
  - { offsetInCU: 0x11094, offset: 0x11094, size: 0x8, addend: 0x0, symName: __ZN2yy6parser10value_type7destroyINSt3__112basic_stringIcNS3_11char_traitsIcEENS3_9allocatorIcEEEEEEvv, symObjAddr: 0xBB30, symBinAddr: 0x10000DFB0, symSize: 0x30 }
  - { offsetInCU: 0x110C3, offset: 0x110C3, size: 0x8, addend: 0x0, symName: __ZN2yy6parser10value_type7emplaceIP4NodeJS4_EEERT_DpOT0_, symObjAddr: 0xBB60, symBinAddr: 0x10000DFE0, symSize: 0x30 }
  - { offsetInCU: 0x1110B, offset: 0x1110B, size: 0x8, addend: 0x0, symName: __ZN2yy6parser10value_type5yyas_IP4NodeEEPT_v, symObjAddr: 0xBB90, symBinAddr: 0x10000E010, symSize: 0x20 }
  - { offsetInCU: 0x1114E, offset: 0x1114E, size: 0x8, addend: 0x0, symName: __ZN2yy6parser10value_type7emplaceINSt3__112basic_stringIcNS3_11char_traitsIcEENS3_9allocatorIcEEEEJS9_EEERT_DpOT0_, symObjAddr: 0xBBB0, symBinAddr: 0x10000E030, symSize: 0x40 }
  - { offsetInCU: 0x11196, offset: 0x11196, size: 0x8, addend: 0x0, symName: __ZN2yy6parser10value_type5yyas_INSt3__112basic_stringIcNS3_11char_traitsIcEENS3_9allocatorIcEEEEEEPT_v, symObjAddr: 0xBBF0, symBinAddr: 0x10000E070, symSize: 0x20 }
  - { offsetInCU: 0x111D4, offset: 0x111D4, size: 0x8, addend: 0x0, symName: __ZNSt3__112basic_stringIcNS_11char_traitsIcEENS_9allocatorIcEEEC1B7v160006EOS5_, symObjAddr: 0xBC10, symBinAddr: 0x10000E090, symSize: 0x30 }
  - { offsetInCU: 0x1120D, offset: 0x1120D, size: 0x8, addend: 0x0, symName: __ZNSt3__112basic_stringIcNS_11char_traitsIcEENS_9allocatorIcEEEC2B7v160006EOS5_, symObjAddr: 0xBC40, symBinAddr: 0x10000E0C0, symSize: 0x80 }
  - { offsetInCU: 0x11246, offset: 0x11246, size: 0x8, addend: 0x0, symName: __ZNSt3__16vectorIN2yy6parser17stack_symbol_typeENS_9allocatorIS3_EEE9push_backB7v160006EOS3_, symObjAddr: 0xBCD0, symBinAddr: 0x10000E150, symSize: 0x60 }
  - { offsetInCU: 0x1127D, offset: 0x1127D, size: 0x8, addend: 0x0, symName: __ZN2yy6parser12basic_symbolINS0_8by_stateEE4moveERS3_, symObjAddr: 0xBD30, symBinAddr: 0x10000E1B0, symSize: 0xA0 }
  - { offsetInCU: 0x112B4, offset: 0x112B4, size: 0x8, addend: 0x0, symName: __ZNSt3__16vectorIN2yy6parser17stack_symbol_typeENS_9allocatorIS3_EEE22__construct_one_at_endB7v160006IJS3_EEEvDpOT_, symObjAddr: 0xBDD0, symBinAddr: 0x10000E250, symSize: 0x90 }
  - { offsetInCU: 0x11303, offset: 0x11303, size: 0x8, addend: 0x0, symName: __ZNSt3__16vectorIN2yy6parser17stack_symbol_typeENS_9allocatorIS3_EEE21__push_back_slow_pathIS3_EEvOT_, symObjAddr: 0xBE60, symBinAddr: 0x10000E2E0, symSize: 0xD0 }
  - { offsetInCU: 0x11361, offset: 0x11361, size: 0x8, addend: 0x0, symName: __ZNSt3__116allocator_traitsINS_9allocatorIN2yy6parser17stack_symbol_typeEEEE9constructB7v160006IS4_JS4_EvEEvRS5_PT_DpOT0_, symObjAddr: 0xBF30, symBinAddr: 0x10000E3B0, symSize: 0x30 }
  - { offsetInCU: 0x113B8, offset: 0x113B8, size: 0x8, addend: 0x0, symName: __ZNSt3__19allocatorIN2yy6parser17stack_symbol_typeEE9constructB7v160006IS3_JS3_EEEvPT_DpOT0_, symObjAddr: 0xBF60, symBinAddr: 0x10000E3E0, symSize: 0x30 }
  - { offsetInCU: 0x1140E, offset: 0x1140E, size: 0x8, addend: 0x0, symName: __ZNKSt3__16vectorIN2yy6parser17stack_symbol_typeENS_9allocatorIS3_EEE11__recommendB7v160006Em, symObjAddr: 0xBF90, symBinAddr: 0x10000E410, symSize: 0xA0 }
  - { offsetInCU: 0x11463, offset: 0x11463, size: 0x8, addend: 0x0, symName: __ZNSt3__114__split_bufferIN2yy6parser17stack_symbol_typeERNS_9allocatorIS3_EEEC1EmmS6_, symObjAddr: 0xC030, symBinAddr: 0x10000E4B0, symSize: 0x40 }
  - { offsetInCU: 0x114B9, offset: 0x114B9, size: 0x8, addend: 0x0, symName: __ZNSt3__114__split_bufferIN2yy6parser17stack_symbol_typeERNS_9allocatorIS3_EEED1Ev, symObjAddr: 0xC1A0, symBinAddr: 0x10000E620, symSize: 0x20 }
  - { offsetInCU: 0x114E5, offset: 0x114E5, size: 0x8, addend: 0x0, symName: __ZNSt3__114__split_bufferIN2yy6parser17stack_symbol_typeERNS_9allocatorIS3_EEEC2EmmS6_, symObjAddr: 0xC240, symBinAddr: 0x10000E6C0, symSize: 0xC0 }
  - { offsetInCU: 0x11559, offset: 0x11559, size: 0x8, addend: 0x0, symName: __ZNSt3__117__compressed_pairIPN2yy6parser17stack_symbol_typeERNS_9allocatorIS3_EEEC1B7v160006IDnS7_EEOT_OT0_, symObjAddr: 0xC300, symBinAddr: 0x10000E780, symSize: 0x30 }
  - { offsetInCU: 0x115B1, offset: 0x115B1, size: 0x8, addend: 0x0, symName: __ZNSt3__114__split_bufferIN2yy6parser17stack_symbol_typeERNS_9allocatorIS3_EEE7__allocB7v160006Ev, symObjAddr: 0xC330, symBinAddr: 0x10000E7B0, symSize: 0x20 }
  - { offsetInCU: 0x115D7, offset: 0x115D7, size: 0x8, addend: 0x0, symName: __ZNSt3__114__split_bufferIN2yy6parser17stack_symbol_typeERNS_9allocatorIS3_EEE9__end_capB7v160006Ev, symObjAddr: 0xC350, symBinAddr: 0x10000E7D0, symSize: 0x20 }
  - { offsetInCU: 0x115FD, offset: 0x115FD, size: 0x8, addend: 0x0, symName: __ZNSt3__117__compressed_pairIPN2yy6parser17stack_symbol_typeERNS_9allocatorIS3_EEEC2B7v160006IDnS7_EEOT_OT0_, symObjAddr: 0xC370, symBinAddr: 0x10000E7F0, symSize: 0x40 }
  - { offsetInCU: 0x11655, offset: 0x11655, size: 0x8, addend: 0x0, symName: __ZNSt3__122__compressed_pair_elemIRNS_9allocatorIN2yy6parser17stack_symbol_typeEEELi1ELb0EEC2B7v160006IS6_vEEOT_, symObjAddr: 0xC3B0, symBinAddr: 0x10000E830, symSize: 0x20 }
  - { offsetInCU: 0x11697, offset: 0x11697, size: 0x8, addend: 0x0, symName: __ZNSt3__117__compressed_pairIPN2yy6parser17stack_symbol_typeERNS_9allocatorIS3_EEE6secondB7v160006Ev, symObjAddr: 0xC3D0, symBinAddr: 0x10000E850, symSize: 0x20 }
  - { offsetInCU: 0x116BD, offset: 0x116BD, size: 0x8, addend: 0x0, symName: __ZNSt3__122__compressed_pair_elemIRNS_9allocatorIN2yy6parser17stack_symbol_typeEEELi1ELb0EE5__getB7v160006Ev, symObjAddr: 0xC3F0, symBinAddr: 0x10000E870, symSize: 0x20 }
  - { offsetInCU: 0x116E3, offset: 0x116E3, size: 0x8, addend: 0x0, symName: __ZNSt3__117__compressed_pairIPN2yy6parser17stack_symbol_typeERNS_9allocatorIS3_EEE5firstB7v160006Ev, symObjAddr: 0xC410, symBinAddr: 0x10000E890, symSize: 0x20 }
  - { offsetInCU: 0x11709, offset: 0x11709, size: 0x8, addend: 0x0, symName: __ZNSt3__116reverse_iteratorIPN2yy6parser17stack_symbol_typeEEC1B7v160006ES4_, symObjAddr: 0xC5B0, symBinAddr: 0x10000EA30, symSize: 0x30 }
  - { offsetInCU: 0x11741, offset: 0x11741, size: 0x8, addend: 0x0, symName: __ZNKSt3__116reverse_iteratorIPN2yy6parser17stack_symbol_typeEE4baseB7v160006Ev, symObjAddr: 0xC5E0, symBinAddr: 0x10000EA60, symSize: 0x20 }
  - { offsetInCU: 0x11767, offset: 0x11767, size: 0x8, addend: 0x0, symName: __ZNSt3__129_AllocatorDestroyRangeReverseINS_9allocatorIN2yy6parser17stack_symbol_typeEEENS_16reverse_iteratorIPS4_EEEC1B7v160006ERS5_RS8_SB_, symObjAddr: 0xC6B0, symBinAddr: 0x10000EB30, symSize: 0x40 }
  - { offsetInCU: 0x117BE, offset: 0x117BE, size: 0x8, addend: 0x0, symName: __ZNKSt3__116reverse_iteratorIPN2yy6parser17stack_symbol_typeEEdeB7v160006Ev, symObjAddr: 0xC750, symBinAddr: 0x10000EBD0, symSize: 0x30 }
  - { offsetInCU: 0x117F2, offset: 0x117F2, size: 0x8, addend: 0x0, symName: __ZNSt3__116reverse_iteratorIPN2yy6parser17stack_symbol_typeEEppB7v160006Ev, symObjAddr: 0xC780, symBinAddr: 0x10000EC00, symSize: 0x20 }
  - { offsetInCU: 0x11818, offset: 0x11818, size: 0x8, addend: 0x0, symName: __ZNSt3__128__exception_guard_exceptionsINS_29_AllocatorDestroyRangeReverseINS_9allocatorIN2yy6parser17stack_symbol_typeEEENS_16reverse_iteratorIPS5_EEEEE10__completeB7v160006Ev, symObjAddr: 0xC7A0, symBinAddr: 0x10000EC20, symSize: 0x20 }
  - { offsetInCU: 0x1183E, offset: 0x1183E, size: 0x8, addend: 0x0, symName: __ZNSt3__128__exception_guard_exceptionsINS_29_AllocatorDestroyRangeReverseINS_9allocatorIN2yy6parser17stack_symbol_typeEEENS_16reverse_iteratorIPS5_EEEEED1B7v160006Ev, symObjAddr: 0xC7C0, symBinAddr: 0x10000EC40, symSize: 0x20 }
  - { offsetInCU: 0x11868, offset: 0x11868, size: 0x8, addend: 0x0, symName: __ZNSt3__128__exception_guard_exceptionsINS_29_AllocatorDestroyRangeReverseINS_9allocatorIN2yy6parser17stack_symbol_typeEEENS_16reverse_iteratorIPS5_EEEEEC1B7v160006ESA_, symObjAddr: 0xC7E0, symBinAddr: 0x10000EC60, symSize: 0x40 }
  - { offsetInCU: 0x118A0, offset: 0x118A0, size: 0x8, addend: 0x0, symName: __ZNSt3__128__exception_guard_exceptionsINS_29_AllocatorDestroyRangeReverseINS_9allocatorIN2yy6parser17stack_symbol_typeEEENS_16reverse_iteratorIPS5_EEEEEC2B7v160006ESA_, symObjAddr: 0xC820, symBinAddr: 0x10000ECA0, symSize: 0x30 }
  - { offsetInCU: 0x118D8, offset: 0x118D8, size: 0x8, addend: 0x0, symName: __ZNSt3__129_AllocatorDestroyRangeReverseINS_9allocatorIN2yy6parser17stack_symbol_typeEEENS_16reverse_iteratorIPS4_EEEC2B7v160006ERS5_RS8_SB_, symObjAddr: 0xC850, symBinAddr: 0x10000ECD0, symSize: 0x40 }
  - { offsetInCU: 0x11934, offset: 0x11934, size: 0x8, addend: 0x0, symName: __ZNSt3__119__to_address_helperINS_16reverse_iteratorIPN2yy6parser17stack_symbol_typeEEEvE6__callB7v160006ERKS6_, symObjAddr: 0xC890, symBinAddr: 0x10000ED10, symSize: 0x40 }
  - { offsetInCU: 0x11957, offset: 0x11957, size: 0x8, addend: 0x0, symName: __ZNKSt3__116reverse_iteratorIPN2yy6parser17stack_symbol_typeEEptB7v160006Ev, symObjAddr: 0xC8D0, symBinAddr: 0x10000ED50, symSize: 0x20 }
  - { offsetInCU: 0x1197D, offset: 0x1197D, size: 0x8, addend: 0x0, symName: __ZNSt3__128__exception_guard_exceptionsINS_29_AllocatorDestroyRangeReverseINS_9allocatorIN2yy6parser17stack_symbol_typeEEENS_16reverse_iteratorIPS5_EEEEED2B7v160006Ev, symObjAddr: 0xC8F0, symBinAddr: 0x10000ED70, symSize: 0x40 }
  - { offsetInCU: 0x119A7, offset: 0x119A7, size: 0x8, addend: 0x0, symName: __ZNKSt3__129_AllocatorDestroyRangeReverseINS_9allocatorIN2yy6parser17stack_symbol_typeEEENS_16reverse_iteratorIPS4_EEEclB7v160006Ev, symObjAddr: 0xC930, symBinAddr: 0x10000EDB0, symSize: 0xF0 }
  - { offsetInCU: 0x119CE, offset: 0x119CE, size: 0x8, addend: 0x0, symName: __ZNSt3__116reverse_iteratorINS0_IPN2yy6parser17stack_symbol_typeEEEEC1B7v160006ES5_, symObjAddr: 0xCA90, symBinAddr: 0x10000EF10, symSize: 0x30 }
  - { offsetInCU: 0x11A06, offset: 0x11A06, size: 0x8, addend: 0x0, symName: __ZNSt3__116reverse_iteratorINS0_IPN2yy6parser17stack_symbol_typeEEEEppB7v160006Ev, symObjAddr: 0xCB30, symBinAddr: 0x10000EFB0, symSize: 0x30 }
  - { offsetInCU: 0x11A2C, offset: 0x11A2C, size: 0x8, addend: 0x0, symName: __ZNKSt3__116reverse_iteratorINS0_IPN2yy6parser17stack_symbol_typeEEEE4baseB7v160006Ev, symObjAddr: 0xCB60, symBinAddr: 0x10000EFE0, symSize: 0x20 }
  - { offsetInCU: 0x11A57, offset: 0x11A57, size: 0x8, addend: 0x0, symName: __ZNSt3__119__to_address_helperINS_16reverse_iteratorINS1_IPN2yy6parser17stack_symbol_typeEEEEEvE6__callB7v160006ERKS7_, symObjAddr: 0xCB80, symBinAddr: 0x10000F000, symSize: 0x40 }
  - { offsetInCU: 0x11A7A, offset: 0x11A7A, size: 0x8, addend: 0x0, symName: __ZNKSt3__116reverse_iteratorINS0_IPN2yy6parser17stack_symbol_typeEEEEptB7v160006Ev, symObjAddr: 0xCBC0, symBinAddr: 0x10000F040, symSize: 0x20 }
  - { offsetInCU: 0x11AA0, offset: 0x11AA0, size: 0x8, addend: 0x0, symName: __ZNKSt3__116reverse_iteratorINS0_IPN2yy6parser17stack_symbol_typeEEEEdeB7v160006Ev, symObjAddr: 0xCBE0, symBinAddr: 0x10000F060, symSize: 0x40 }
  - { offsetInCU: 0x11AD4, offset: 0x11AD4, size: 0x8, addend: 0x0, symName: __ZNSt3__116reverse_iteratorIPN2yy6parser17stack_symbol_typeEEmmB7v160006Ev, symObjAddr: 0xCC20, symBinAddr: 0x10000F0A0, symSize: 0x20 }
  - { offsetInCU: 0x11AFA, offset: 0x11AFA, size: 0x8, addend: 0x0, symName: __ZNSt3__116reverse_iteratorINS0_IPN2yy6parser17stack_symbol_typeEEEEC2B7v160006ES5_, symObjAddr: 0xCC40, symBinAddr: 0x10000F0C0, symSize: 0x40 }
  - { offsetInCU: 0x11B32, offset: 0x11B32, size: 0x8, addend: 0x0, symName: __ZNSt3__116reverse_iteratorIPN2yy6parser17stack_symbol_typeEEC2B7v160006ES4_, symObjAddr: 0xCC80, symBinAddr: 0x10000F100, symSize: 0x30 }
  - { offsetInCU: 0x11B6A, offset: 0x11B6A, size: 0x8, addend: 0x0, symName: __ZNSt3__114__split_bufferIN2yy6parser17stack_symbol_typeERNS_9allocatorIS3_EEED2Ev, symObjAddr: 0xCCB0, symBinAddr: 0x10000F130, symSize: 0x70 }
  - { offsetInCU: 0x11B96, offset: 0x11B96, size: 0x8, addend: 0x0, symName: __ZNSt3__114__split_bufferIN2yy6parser17stack_symbol_typeERNS_9allocatorIS3_EEE5clearB7v160006Ev, symObjAddr: 0xCD20, symBinAddr: 0x10000F1A0, symSize: 0x20 }
  - { offsetInCU: 0x11BBC, offset: 0x11BBC, size: 0x8, addend: 0x0, symName: __ZNKSt3__114__split_bufferIN2yy6parser17stack_symbol_typeERNS_9allocatorIS3_EEE8capacityB7v160006Ev, symObjAddr: 0xCD40, symBinAddr: 0x10000F1C0, symSize: 0x40 }
  - { offsetInCU: 0x11BE2, offset: 0x11BE2, size: 0x8, addend: 0x0, symName: __ZNSt3__114__split_bufferIN2yy6parser17stack_symbol_typeERNS_9allocatorIS3_EEE17__destruct_at_endB7v160006EPS3_, symObjAddr: 0xCD80, symBinAddr: 0x10000F200, symSize: 0x30 }
  - { offsetInCU: 0x11C16, offset: 0x11C16, size: 0x8, addend: 0x0, symName: __ZNSt3__114__split_bufferIN2yy6parser17stack_symbol_typeERNS_9allocatorIS3_EEE17__destruct_at_endB7v160006EPS3_NS_17integral_constantIbLb0EEE, symObjAddr: 0xCDB0, symBinAddr: 0x10000F230, symSize: 0x80 }
  - { offsetInCU: 0x11C57, offset: 0x11C57, size: 0x8, addend: 0x0, symName: __ZNKSt3__114__split_bufferIN2yy6parser17stack_symbol_typeERNS_9allocatorIS3_EEE9__end_capB7v160006Ev, symObjAddr: 0xCE30, symBinAddr: 0x10000F2B0, symSize: 0x20 }
  - { offsetInCU: 0x11C7D, offset: 0x11C7D, size: 0x8, addend: 0x0, symName: __ZNKSt3__117__compressed_pairIPN2yy6parser17stack_symbol_typeERNS_9allocatorIS3_EEE5firstB7v160006Ev, symObjAddr: 0xCE50, symBinAddr: 0x10000F2D0, symSize: 0x20 }
  - { offsetInCU: 0x11CA3, offset: 0x11CA3, size: 0x8, addend: 0x0, symName: __ZNSt3__16vectorIN2yy6parser17stack_symbol_typeENS_9allocatorIS3_EEE8pop_backEv, symObjAddr: 0xCE70, symBinAddr: 0x10000F2F0, symSize: 0x30 }
  - { offsetInCU: 0x11CCB, offset: 0x11CCB, size: 0x8, addend: 0x0, symName: __ZNSt3__16vectorIN2yy6parser17stack_symbol_typeENS_9allocatorIS3_EEE17__destruct_at_endB7v160006EPS3_, symObjAddr: 0xCEA0, symBinAddr: 0x10000F320, symSize: 0x60 }
  - { offsetInCU: 0x11D0F, offset: 0x11D0F, size: 0x8, addend: 0x0, symName: __ZNSt3__16vectorIN2yy6parser17stack_symbol_typeENS_9allocatorIS3_EEE27__invalidate_iterators_pastB7v160006EPS3_, symObjAddr: 0xCF00, symBinAddr: 0x10000F380, symSize: 0x10 }
  - { offsetInCU: 0x11D46, offset: 0x11D46, size: 0x8, addend: 0x0, symName: __ZNKSt3__16vectorIN2yy6parser17stack_symbol_typeENS_9allocatorIS3_EEE17__annotate_shrinkB7v160006Em, symObjAddr: 0xCF10, symBinAddr: 0x10000F390, symSize: 0xA0 }
  - { offsetInCU: 0x11D7B, offset: 0x11D7B, size: 0x8, addend: 0x0, symName: __ZNSt3__16vectorIN2yy6parser17stack_symbol_typeENS_9allocatorIS3_EEE5clearB7v160006Ev, symObjAddr: 0xCFB0, symBinAddr: 0x10000F430, symSize: 0x50 }
  - { offsetInCU: 0x11DB0, offset: 0x11DB0, size: 0x8, addend: 0x0, symName: __ZNSt3__16vectorIN2yy6parser17stack_symbol_typeENS_9allocatorIS3_EEEixB7v160006Em, symObjAddr: 0xD000, symBinAddr: 0x10000F480, symSize: 0x20 }
  - { offsetInCU: 0x11DE7, offset: 0x11DE7, size: 0x8, addend: 0x0, symName: __ZN2yy6parser7by_kind4moveERS1_, symObjAddr: 0xD020, symBinAddr: 0x10000F4A0, symSize: 0x30 }
  - { offsetInCU: 0x11E1E, offset: 0x11E1E, size: 0x8, addend: 0x0, symName: __ZN2yy6parser7by_kind5clearEv, symObjAddr: 0xD050, symBinAddr: 0x10000F4D0, symSize: 0x20 }
  - { offsetInCU: 0x11E46, offset: 0x11E46, size: 0x8, addend: 0x0, symName: __ZNSt3__110__list_impIP4NodeNS_9allocatorIS2_EEE12__node_allocB7v160006Ev, symObjAddr: 0xD070, symBinAddr: 0x10000F4F0, symSize: 0x20 }
  - { offsetInCU: 0x11E6C, offset: 0x11E6C, size: 0x8, addend: 0x0, symName: __ZNSt3__14listIP4NodeNS_9allocatorIS2_EEE15__allocate_nodeB7v160006ERNS3_INS_11__list_nodeIS2_PvEEEE, symObjAddr: 0xD090, symBinAddr: 0x10000F510, symSize: 0x80 }
  - { offsetInCU: 0x11EB0, offset: 0x11EB0, size: 0x8, addend: 0x0, symName: __ZNSt3__116allocator_traitsINS_9allocatorINS_11__list_nodeIP4NodePvEEEEE9constructB7v160006IS4_JRKS4_EvEEvRS7_PT_DpOT0_, symObjAddr: 0xD110, symBinAddr: 0x10000F590, symSize: 0x30 }
  - { offsetInCU: 0x11F07, offset: 0x11F07, size: 0x8, addend: 0x0, symName: __ZNKSt3__110unique_ptrINS_11__list_nodeIP4NodePvEENS_22__allocator_destructorINS_9allocatorIS5_EEEEEptB7v160006Ev, symObjAddr: 0xD140, symBinAddr: 0x10000F5C0, symSize: 0x20 }
  - { offsetInCU: 0x11F2D, offset: 0x11F2D, size: 0x8, addend: 0x0, symName: __ZNSt3__14listIP4NodeNS_9allocatorIS2_EEE20__link_nodes_at_backEPNS_16__list_node_baseIS2_PvEES9_, symObjAddr: 0xD160, symBinAddr: 0x10000F5E0, symSize: 0x60 }
  - { offsetInCU: 0x11F73, offset: 0x11F73, size: 0x8, addend: 0x0, symName: __ZNKSt3__110unique_ptrINS_11__list_nodeIP4NodePvEENS_22__allocator_destructorINS_9allocatorIS5_EEEEE3getB7v160006Ev, symObjAddr: 0xD1C0, symBinAddr: 0x10000F640, symSize: 0x20 }
  - { offsetInCU: 0x11F99, offset: 0x11F99, size: 0x8, addend: 0x0, symName: __ZNSt3__111__list_nodeIP4NodePvE9__as_linkB7v160006Ev, symObjAddr: 0xD1E0, symBinAddr: 0x10000F660, symSize: 0x20 }
  - { offsetInCU: 0x11FBF, offset: 0x11FBF, size: 0x8, addend: 0x0, symName: __ZNSt3__110__list_impIP4NodeNS_9allocatorIS2_EEE4__szB7v160006Ev, symObjAddr: 0xD200, symBinAddr: 0x10000F680, symSize: 0x20 }
  - { offsetInCU: 0x11FE5, offset: 0x11FE5, size: 0x8, addend: 0x0, symName: __ZNSt3__110unique_ptrINS_11__list_nodeIP4NodePvEENS_22__allocator_destructorINS_9allocatorIS5_EEEEE7releaseB7v160006Ev, symObjAddr: 0xD220, symBinAddr: 0x10000F6A0, symSize: 0x40 }
  - { offsetInCU: 0x1201A, offset: 0x1201A, size: 0x8, addend: 0x0, symName: __ZNSt3__110unique_ptrINS_11__list_nodeIP4NodePvEENS_22__allocator_destructorINS_9allocatorIS5_EEEEED1B7v160006Ev, symObjAddr: 0xD260, symBinAddr: 0x10000F6E0, symSize: 0x20 }
  - { offsetInCU: 0x12044, offset: 0x12044, size: 0x8, addend: 0x0, symName: __ZNSt3__117__compressed_pairImNS_9allocatorINS_11__list_nodeIP4NodePvEEEEE6secondB7v160006Ev, symObjAddr: 0xD280, symBinAddr: 0x10000F700, symSize: 0x20 }
  - { offsetInCU: 0x1206A, offset: 0x1206A, size: 0x8, addend: 0x0, symName: __ZNSt3__122__compressed_pair_elemINS_9allocatorINS_11__list_nodeIP4NodePvEEEELi1ELb1EE5__getB7v160006Ev, symObjAddr: 0xD2A0, symBinAddr: 0x10000F720, symSize: 0x10 }
  - { offsetInCU: 0x12090, offset: 0x12090, size: 0x8, addend: 0x0, symName: __ZNSt3__116allocator_traitsINS_9allocatorINS_11__list_nodeIP4NodePvEEEEE8allocateB7v160006ERS7_m, symObjAddr: 0xD2B0, symBinAddr: 0x10000F730, symSize: 0x30 }
  - { offsetInCU: 0x120C3, offset: 0x120C3, size: 0x8, addend: 0x0, symName: __ZNSt3__122__allocator_destructorINS_9allocatorINS_11__list_nodeIP4NodePvEEEEEC1B7v160006ERS7_m, symObjAddr: 0xD2E0, symBinAddr: 0x10000F760, symSize: 0x30 }
  - { offsetInCU: 0x1210E, offset: 0x1210E, size: 0x8, addend: 0x0, symName: __ZNSt3__110unique_ptrINS_11__list_nodeIP4NodePvEENS_22__allocator_destructorINS_9allocatorIS5_EEEEEC1B7v160006ILb1EvEEPS5_NS_16__dependent_typeINS_27__unique_ptr_deleter_sfinaeIS9_EEXT_EE20__good_rval_ref_typeE, symObjAddr: 0xD310, symBinAddr: 0x10000F790, symSize: 0x30 }
  - { offsetInCU: 0x1215F, offset: 0x1215F, size: 0x8, addend: 0x0, symName: __ZNSt3__19allocatorINS_11__list_nodeIP4NodePvEEE8allocateB7v160006Em, symObjAddr: 0xD340, symBinAddr: 0x10000F7C0, symSize: 0x50 }
  - { offsetInCU: 0x1219D, offset: 0x1219D, size: 0x8, addend: 0x0, symName: __ZNSt3__116allocator_traitsINS_9allocatorINS_11__list_nodeIP4NodePvEEEEE8max_sizeB7v160006IS7_vEEmRKS7_, symObjAddr: 0xD390, symBinAddr: 0x10000F810, symSize: 0x20 }
  - { offsetInCU: 0x121CB, offset: 0x121CB, size: 0x8, addend: 0x0, symName: __ZNKSt3__19allocatorINS_11__list_nodeIP4NodePvEEE8max_sizeB7v160006Ev, symObjAddr: 0xD3B0, symBinAddr: 0x10000F830, symSize: 0x20 }
  - { offsetInCU: 0x121F1, offset: 0x121F1, size: 0x8, addend: 0x0, symName: __ZNSt3__122__allocator_destructorINS_9allocatorINS_11__list_nodeIP4NodePvEEEEEC2B7v160006ERS7_m, symObjAddr: 0xD3D0, symBinAddr: 0x10000F850, symSize: 0x30 }
  - { offsetInCU: 0x12237, offset: 0x12237, size: 0x8, addend: 0x0, symName: __ZNSt3__110unique_ptrINS_11__list_nodeIP4NodePvEENS_22__allocator_destructorINS_9allocatorIS5_EEEEEC2B7v160006ILb1EvEEPS5_NS_16__dependent_typeINS_27__unique_ptr_deleter_sfinaeIS9_EEXT_EE20__good_rval_ref_typeE, symObjAddr: 0xD400, symBinAddr: 0x10000F880, symSize: 0x40 }
  - { offsetInCU: 0x12288, offset: 0x12288, size: 0x8, addend: 0x0, symName: __ZNSt3__117__compressed_pairIPNS_11__list_nodeIP4NodePvEENS_22__allocator_destructorINS_9allocatorIS5_EEEEEC1B7v160006IRS6_SA_EEOT_OT0_, symObjAddr: 0xD440, symBinAddr: 0x10000F8C0, symSize: 0x30 }
  - { offsetInCU: 0x122E0, offset: 0x122E0, size: 0x8, addend: 0x0, symName: __ZNSt3__117__compressed_pairIPNS_11__list_nodeIP4NodePvEENS_22__allocator_destructorINS_9allocatorIS5_EEEEEC2B7v160006IRS6_SA_EEOT_OT0_, symObjAddr: 0xD470, symBinAddr: 0x10000F8F0, symSize: 0x40 }
  - { offsetInCU: 0x12338, offset: 0x12338, size: 0x8, addend: 0x0, symName: __ZNSt3__122__compressed_pair_elemIPNS_11__list_nodeIP4NodePvEELi0ELb0EEC2B7v160006IRS6_vEEOT_, symObjAddr: 0xD4B0, symBinAddr: 0x10000F930, symSize: 0x20 }
  - { offsetInCU: 0x1237A, offset: 0x1237A, size: 0x8, addend: 0x0, symName: __ZNSt3__122__compressed_pair_elemINS_22__allocator_destructorINS_9allocatorINS_11__list_nodeIP4NodePvEEEEEELi1ELb0EEC2B7v160006IS9_vEEOT_, symObjAddr: 0xD4D0, symBinAddr: 0x10000F950, symSize: 0x30 }
  - { offsetInCU: 0x123BC, offset: 0x123BC, size: 0x8, addend: 0x0, symName: __ZNSt3__19allocatorINS_11__list_nodeIP4NodePvEEE9constructB7v160006IS3_JRKS3_EEEvPT_DpOT0_, symObjAddr: 0xD500, symBinAddr: 0x10000F980, symSize: 0x20 }
  - { offsetInCU: 0x12412, offset: 0x12412, size: 0x8, addend: 0x0, symName: __ZNKSt3__117__compressed_pairIPNS_11__list_nodeIP4NodePvEENS_22__allocator_destructorINS_9allocatorIS5_EEEEE5firstB7v160006Ev, symObjAddr: 0xD520, symBinAddr: 0x10000F9A0, symSize: 0x20 }
  - { offsetInCU: 0x12438, offset: 0x12438, size: 0x8, addend: 0x0, symName: __ZNKSt3__122__compressed_pair_elemIPNS_11__list_nodeIP4NodePvEELi0ELb0EE5__getB7v160006Ev, symObjAddr: 0xD540, symBinAddr: 0x10000F9C0, symSize: 0x10 }
  - { offsetInCU: 0x1245E, offset: 0x1245E, size: 0x8, addend: 0x0, symName: __ZNKSt3__110__list_impIP4NodeNS_9allocatorIS2_EEE13__end_as_linkB7v160006Ev, symObjAddr: 0xD550, symBinAddr: 0x10000F9D0, symSize: 0x30 }
  - { offsetInCU: 0x12484, offset: 0x12484, size: 0x8, addend: 0x0, symName: __ZNSt3__117__compressed_pairImNS_9allocatorINS_11__list_nodeIP4NodePvEEEEE5firstB7v160006Ev, symObjAddr: 0xD580, symBinAddr: 0x10000FA00, symSize: 0x20 }
  - { offsetInCU: 0x124AA, offset: 0x124AA, size: 0x8, addend: 0x0, symName: __ZNSt3__122__compressed_pair_elemImLi0ELb0EE5__getB7v160006Ev, symObjAddr: 0xD5A0, symBinAddr: 0x10000FA20, symSize: 0x10 }
  - { offsetInCU: 0x124D0, offset: 0x124D0, size: 0x8, addend: 0x0, symName: __ZNSt3__117__compressed_pairIPNS_11__list_nodeIP4NodePvEENS_22__allocator_destructorINS_9allocatorIS5_EEEEE5firstB7v160006Ev, symObjAddr: 0xD5B0, symBinAddr: 0x10000FA30, symSize: 0x20 }
  - { offsetInCU: 0x124F6, offset: 0x124F6, size: 0x8, addend: 0x0, symName: __ZNSt3__122__compressed_pair_elemIPNS_11__list_nodeIP4NodePvEELi0ELb0EE5__getB7v160006Ev, symObjAddr: 0xD5D0, symBinAddr: 0x10000FA50, symSize: 0x10 }
  - { offsetInCU: 0x1251C, offset: 0x1251C, size: 0x8, addend: 0x0, symName: __ZNSt3__110unique_ptrINS_11__list_nodeIP4NodePvEENS_22__allocator_destructorINS_9allocatorIS5_EEEEED2B7v160006Ev, symObjAddr: 0xD5E0, symBinAddr: 0x10000FA60, symSize: 0x20 }
  - { offsetInCU: 0x12546, offset: 0x12546, size: 0x8, addend: 0x0, symName: __ZNSt3__110unique_ptrINS_11__list_nodeIP4NodePvEENS_22__allocator_destructorINS_9allocatorIS5_EEEEE5resetB7v160006EPS5_, symObjAddr: 0xD600, symBinAddr: 0x10000FA80, symSize: 0x70 }
  - { offsetInCU: 0x1258A, offset: 0x1258A, size: 0x8, addend: 0x0, symName: __ZNSt3__117__compressed_pairIPNS_11__list_nodeIP4NodePvEENS_22__allocator_destructorINS_9allocatorIS5_EEEEE6secondB7v160006Ev, symObjAddr: 0xD670, symBinAddr: 0x10000FAF0, symSize: 0x20 }
  - { offsetInCU: 0x125B0, offset: 0x125B0, size: 0x8, addend: 0x0, symName: __ZNSt3__122__allocator_destructorINS_9allocatorINS_11__list_nodeIP4NodePvEEEEEclB7v160006EPS6_, symObjAddr: 0xD690, symBinAddr: 0x10000FB10, symSize: 0x30 }
  - { offsetInCU: 0x125E4, offset: 0x125E4, size: 0x8, addend: 0x0, symName: __ZNSt3__122__compressed_pair_elemINS_22__allocator_destructorINS_9allocatorINS_11__list_nodeIP4NodePvEEEEEELi1ELb0EE5__getB7v160006Ev, symObjAddr: 0xD6C0, symBinAddr: 0x10000FB40, symSize: 0x10 }
  - { offsetInCU: 0x1260A, offset: 0x1260A, size: 0x8, addend: 0x0, symName: __ZNSt3__116allocator_traitsINS_9allocatorINS_11__list_nodeIP4NodePvEEEEE10deallocateB7v160006ERS7_PS6_m, symObjAddr: 0xD6D0, symBinAddr: 0x10000FB50, symSize: 0x30 }
  - { offsetInCU: 0x1264C, offset: 0x1264C, size: 0x8, addend: 0x0, symName: __ZNSt3__19allocatorINS_11__list_nodeIP4NodePvEEE10deallocateB7v160006EPS5_m, symObjAddr: 0xD700, symBinAddr: 0x10000FB80, symSize: 0x50 }
  - { offsetInCU: 0x1268E, offset: 0x1268E, size: 0x8, addend: 0x0, symName: __ZNSt3__116allocator_traitsINS_9allocatorINS_11__list_nodeIP4NodePvEEEEE9constructB7v160006IS4_JS4_EvEEvRS7_PT_DpOT0_, symObjAddr: 0xD750, symBinAddr: 0x10000FBD0, symSize: 0x30 }
  - { offsetInCU: 0x126E5, offset: 0x126E5, size: 0x8, addend: 0x0, symName: __ZNSt3__19allocatorINS_11__list_nodeIP4NodePvEEE9constructB7v160006IS3_JS3_EEEvPT_DpOT0_, symObjAddr: 0xD780, symBinAddr: 0x10000FC00, symSize: 0x20 }
  - { offsetInCU: 0x1273B, offset: 0x1273B, size: 0x8, addend: 0x0, symName: __ZNKSt3__16vectorIN2yy6parser17stack_symbol_typeENS_9allocatorIS3_EEEixB7v160006Em, symObjAddr: 0xD7A0, symBinAddr: 0x10000FC20, symSize: 0x1D }
  - { offsetInCU: 0x3F, offset: 0x12906, size: 0x8, addend: 0x0, symName: _lexical_errors, symObjAddr: 0x2F408, symBinAddr: 0x100030010, symSize: 0x0 }
  - { offsetInCU: 0x5C, offset: 0x12923, size: 0x8, addend: 0x0, symName: _yyleng, symObjAddr: 0x2F410, symBinAddr: 0x100030018, symSize: 0x0 }
  - { offsetInCU: 0x85, offset: 0x1294C, size: 0x8, addend: 0x0, symName: _yyin, symObjAddr: 0x2F418, symBinAddr: 0x100030020, symSize: 0x0 }
  - { offsetInCU: 0x25E, offset: 0x12B25, size: 0x8, addend: 0x0, symName: _yyout, symObjAddr: 0x2F420, symBinAddr: 0x100030028, symSize: 0x0 }
  - { offsetInCU: 0x275, offset: 0x12B3C, size: 0x8, addend: 0x0, symName: _yylineno, symObjAddr: 0x48CC, symBinAddr: 0x100030000, symSize: 0x0 }
  - { offsetInCU: 0x28C, offset: 0x12B53, size: 0x8, addend: 0x0, symName: _yy_flex_debug, symObjAddr: 0x2F428, symBinAddr: 0x100030030, symSize: 0x0 }
  - { offsetInCU: 0x2A3, offset: 0x12B6A, size: 0x8, addend: 0x0, symName: _yytext, symObjAddr: 0x2F430, symBinAddr: 0x100030038, symSize: 0x0 }
  - { offsetInCU: 0x2BA, offset: 0x12B81, size: 0x8, addend: 0x0, symName: __ZL7yy_init, symObjAddr: 0x2F438, symBinAddr: 0x100030048, symSize: 0x0 }
  - { offsetInCU: 0x2D5, offset: 0x12B9C, size: 0x8, addend: 0x0, symName: __ZL8yy_start, symObjAddr: 0x2F43C, symBinAddr: 0x10003004C, symSize: 0x0 }
  - { offsetInCU: 0x2F0, offset: 0x12BB7, size: 0x8, addend: 0x0, symName: __ZL15yy_buffer_stack, symObjAddr: 0x2F440, symBinAddr: 0x100030050, symSize: 0x0 }
  - { offsetInCU: 0x3BA, offset: 0x12C81, size: 0x8, addend: 0x0, symName: __ZL19yy_buffer_stack_top, symObjAddr: 0x2F448, symBinAddr: 0x100030058, symSize: 0x0 }
  - { offsetInCU: 0x3D5, offset: 0x12C9C, size: 0x8, addend: 0x0, symName: __ZL10yy_c_buf_p, symObjAddr: 0x2F450, symBinAddr: 0x100030060, symSize: 0x0 }
  - { offsetInCU: 0x3F0, offset: 0x12CB7, size: 0x8, addend: 0x0, symName: __ZL12yy_hold_char, symObjAddr: 0x2F458, symBinAddr: 0x100030068, symSize: 0x0 }
  - { offsetInCU: 0x40B, offset: 0x12CD2, size: 0x8, addend: 0x0, symName: __ZL5yy_ec, symObjAddr: 0x48D0, symBinAddr: 0x100029BD0, symSize: 0x0 }
  - { offsetInCU: 0x450, offset: 0x12D17, size: 0x8, addend: 0x0, symName: __ZL9yy_accept, symObjAddr: 0x49D0, symBinAddr: 0x100029CD0, symSize: 0x0 }
  - { offsetInCU: 0x487, offset: 0x12D4E, size: 0x8, addend: 0x0, symName: __ZL23yy_last_accepting_state, symObjAddr: 0x2F45C, symBinAddr: 0x10003006C, symSize: 0x0 }
  - { offsetInCU: 0x4AE, offset: 0x12D75, size: 0x8, addend: 0x0, symName: __ZL22yy_last_accepting_cpos, symObjAddr: 0x2F460, symBinAddr: 0x100030070, symSize: 0x0 }
  - { offsetInCU: 0x4C9, offset: 0x12D90, size: 0x8, addend: 0x0, symName: __ZL6yy_chk, symObjAddr: 0x4AE0, symBinAddr: 0x100029DE0, symSize: 0x0 }
  - { offsetInCU: 0x4F0, offset: 0x12DB7, size: 0x8, addend: 0x0, symName: __ZL7yy_base, symObjAddr: 0x4C70, symBinAddr: 0x100029F70, symSize: 0x0 }
  - { offsetInCU: 0x517, offset: 0x12DDE, size: 0x8, addend: 0x0, symName: __ZL6yy_def, symObjAddr: 0x4D90, symBinAddr: 0x10002A090, symSize: 0x0 }
  - { offsetInCU: 0x532, offset: 0x12DF9, size: 0x8, addend: 0x0, symName: __ZL7yy_meta, symObjAddr: 0x4EB0, symBinAddr: 0x10002A1B0, symSize: 0x0 }
  - { offsetInCU: 0x559, offset: 0x12E20, size: 0x8, addend: 0x0, symName: __ZL6yy_nxt, symObjAddr: 0x4EE0, symBinAddr: 0x10002A1E0, symSize: 0x0 }
  - { offsetInCU: 0x574, offset: 0x12E3B, size: 0x8, addend: 0x0, symName: __ZL21yy_rule_can_match_eol, symObjAddr: 0x5070, symBinAddr: 0x10002A370, symSize: 0x0 }
  - { offsetInCU: 0x6FE1, offset: 0x198A8, size: 0x8, addend: 0x0, symName: __ZN2yy6parser12yytranslate_Ei, symObjAddr: 0x41F0, symBinAddr: 0x100013C30, symSize: 0x60 }
  - { offsetInCU: 0x7004, offset: 0x198CB, size: 0x8, addend: 0x0, symName: __ZZN2yy6parser12yytranslate_EiE15translate_table, symObjAddr: 0x5130, symBinAddr: 0x10002A430, symSize: 0x0 }
  - { offsetInCU: 0x7048, offset: 0x1990F, size: 0x8, addend: 0x0, symName: __ZL10yy_n_chars, symObjAddr: 0x2F468, symBinAddr: 0x100030078, symSize: 0x0 }
  - { offsetInCU: 0x7063, offset: 0x1992A, size: 0x8, addend: 0x0, symName: __ZL27yy_did_buffer_switch_on_eof, symObjAddr: 0x2F470, symBinAddr: 0x100030080, symSize: 0x0 }
  - { offsetInCU: 0x707E, offset: 0x19945, size: 0x8, addend: 0x0, symName: __ZL19yy_buffer_stack_max, symObjAddr: 0x2F480, symBinAddr: 0x100030090, symSize: 0x0 }
  - { offsetInCU: 0x7099, offset: 0x19960, size: 0x8, addend: 0x0, symName: __ZL14yy_start_stack, symObjAddr: 0x2F478, symBinAddr: 0x100030088, symSize: 0x0 }
  - { offsetInCU: 0x70B4, offset: 0x1997B, size: 0x8, addend: 0x0, symName: __ZL18yy_start_stack_ptr, symObjAddr: 0x2F488, symBinAddr: 0x100030098, symSize: 0x0 }
  - { offsetInCU: 0x70CF, offset: 0x19996, size: 0x8, addend: 0x0, symName: __ZL20yy_start_stack_depth, symObjAddr: 0x2F48C, symBinAddr: 0x10003009C, symSize: 0x0 }
  - { offsetInCU: 0x8D7C, offset: 0x1B643, size: 0x8, addend: 0x0, symName: __Z5yylexv, symObjAddr: 0x0, symBinAddr: 0x10000FC40, symSize: 0x1680 }
  - { offsetInCU: 0x8E7B, offset: 0x1B742, size: 0x8, addend: 0x0, symName: __ZL21yyensure_buffer_stackv, symObjAddr: 0x1680, symBinAddr: 0x1000112C0, symSize: 0x120 }
  - { offsetInCU: 0x8EC4, offset: 0x1B78B, size: 0x8, addend: 0x0, symName: __Z16yy_create_bufferP7__sFILEi, symObjAddr: 0x17A0, symBinAddr: 0x1000113E0, symSize: 0xA0 }
  - { offsetInCU: 0x8F10, offset: 0x1B7D7, size: 0x8, addend: 0x0, symName: __ZL20yy_load_buffer_statev, symObjAddr: 0x1840, symBinAddr: 0x100011480, symSize: 0x80 }
  - { offsetInCU: 0x8F2B, offset: 0x1B7F2, size: 0x8, addend: 0x0, symName: __ZN2yy6parser11make_PUBLICENSt3__112basic_stringIcNS1_11char_traitsIcEENS1_9allocatorIcEEEE, symObjAddr: 0x18C0, symBinAddr: 0x100011500, symSize: 0x70 }
  - { offsetInCU: 0x8F55, offset: 0x1B81C, size: 0x8, addend: 0x0, symName: __ZN2yy6parser10make_CLASSENSt3__112basic_stringIcNS1_11char_traitsIcEENS1_9allocatorIcEEEE, symObjAddr: 0x1960, symBinAddr: 0x100011570, symSize: 0x70 }
  - { offsetInCU: 0x8F7A, offset: 0x1B841, size: 0x8, addend: 0x0, symName: __ZN2yy6parser11make_STATICENSt3__112basic_stringIcNS1_11char_traitsIcEENS1_9allocatorIcEEEE, symObjAddr: 0x19D0, symBinAddr: 0x1000115E0, symSize: 0x70 }
  - { offsetInCU: 0x8F9F, offset: 0x1B866, size: 0x8, addend: 0x0, symName: __ZN2yy6parser9make_VOIDENSt3__112basic_stringIcNS1_11char_traitsIcEENS1_9allocatorIcEEEE, symObjAddr: 0x1A40, symBinAddr: 0x100011650, symSize: 0x70 }
  - { offsetInCU: 0x8FC4, offset: 0x1B88B, size: 0x8, addend: 0x0, symName: __ZN2yy6parser9make_MAINENSt3__112basic_stringIcNS1_11char_traitsIcEENS1_9allocatorIcEEEE, symObjAddr: 0x1AB0, symBinAddr: 0x1000116C0, symSize: 0x70 }
  - { offsetInCU: 0x8FE9, offset: 0x1B8B0, size: 0x8, addend: 0x0, symName: __ZN2yy6parser11make_STRINGENSt3__112basic_stringIcNS1_11char_traitsIcEENS1_9allocatorIcEEEE, symObjAddr: 0x1B20, symBinAddr: 0x100011730, symSize: 0x70 }
  - { offsetInCU: 0x900E, offset: 0x1B8D5, size: 0x8, addend: 0x0, symName: __ZN2yy6parser7make_IFENSt3__112basic_stringIcNS1_11char_traitsIcEENS1_9allocatorIcEEEE, symObjAddr: 0x1B90, symBinAddr: 0x1000117A0, symSize: 0x70 }
  - { offsetInCU: 0x9033, offset: 0x1B8FA, size: 0x8, addend: 0x0, symName: __ZN2yy6parser9make_ELSEENSt3__112basic_stringIcNS1_11char_traitsIcEENS1_9allocatorIcEEEE, symObjAddr: 0x1C00, symBinAddr: 0x100011810, symSize: 0x70 }
  - { offsetInCU: 0x9058, offset: 0x1B91F, size: 0x8, addend: 0x0, symName: __ZN2yy6parser10make_WHILEENSt3__112basic_stringIcNS1_11char_traitsIcEENS1_9allocatorIcEEEE, symObjAddr: 0x1C70, symBinAddr: 0x100011880, symSize: 0x70 }
  - { offsetInCU: 0x907D, offset: 0x1B944, size: 0x8, addend: 0x0, symName: __ZN2yy6parser10make_PRINTENSt3__112basic_stringIcNS1_11char_traitsIcEENS1_9allocatorIcEEEE, symObjAddr: 0x1CE0, symBinAddr: 0x1000118F0, symSize: 0x70 }
  - { offsetInCU: 0x90A2, offset: 0x1B969, size: 0x8, addend: 0x0, symName: __ZN2yy6parser8make_NOTENSt3__112basic_stringIcNS1_11char_traitsIcEENS1_9allocatorIcEEEE, symObjAddr: 0x1D50, symBinAddr: 0x100011960, symSize: 0x70 }
  - { offsetInCU: 0x90C7, offset: 0x1B98E, size: 0x8, addend: 0x0, symName: __ZN2yy6parser8make_NEWENSt3__112basic_stringIcNS1_11char_traitsIcEENS1_9allocatorIcEEEE, symObjAddr: 0x1DC0, symBinAddr: 0x1000119D0, symSize: 0x70 }
  - { offsetInCU: 0x90EC, offset: 0x1B9B3, size: 0x8, addend: 0x0, symName: __ZN2yy6parser8make_INTENSt3__112basic_stringIcNS1_11char_traitsIcEENS1_9allocatorIcEEEE, symObjAddr: 0x1E30, symBinAddr: 0x100011A40, symSize: 0x70 }
  - { offsetInCU: 0x9111, offset: 0x1B9D8, size: 0x8, addend: 0x0, symName: __ZN2yy6parser12make_BOOLEANENSt3__112basic_stringIcNS1_11char_traitsIcEENS1_9allocatorIcEEEE, symObjAddr: 0x1EA0, symBinAddr: 0x100011AB0, symSize: 0x70 }
  - { offsetInCU: 0x9136, offset: 0x1B9FD, size: 0x8, addend: 0x0, symName: __ZN2yy6parser9make_TRUEENSt3__112basic_stringIcNS1_11char_traitsIcEENS1_9allocatorIcEEEE, symObjAddr: 0x1F10, symBinAddr: 0x100011B20, symSize: 0x70 }
  - { offsetInCU: 0x915B, offset: 0x1BA22, size: 0x8, addend: 0x0, symName: __ZN2yy6parser10make_FALSEENSt3__112basic_stringIcNS1_11char_traitsIcEENS1_9allocatorIcEEEE, symObjAddr: 0x1F80, symBinAddr: 0x100011B90, symSize: 0x70 }
  - { offsetInCU: 0x9180, offset: 0x1BA47, size: 0x8, addend: 0x0, symName: __ZN2yy6parser9make_THISENSt3__112basic_stringIcNS1_11char_traitsIcEENS1_9allocatorIcEEEE, symObjAddr: 0x1FF0, symBinAddr: 0x100011C00, symSize: 0x70 }
  - { offsetInCU: 0x91A5, offset: 0x1BA6C, size: 0x8, addend: 0x0, symName: __ZN2yy6parser11make_RETURNENSt3__112basic_stringIcNS1_11char_traitsIcEENS1_9allocatorIcEEEE, symObjAddr: 0x2060, symBinAddr: 0x100011C70, symSize: 0x70 }
  - { offsetInCU: 0x91CA, offset: 0x1BA91, size: 0x8, addend: 0x0, symName: __ZN2yy6parser8make_ANDENSt3__112basic_stringIcNS1_11char_traitsIcEENS1_9allocatorIcEEEE, symObjAddr: 0x20D0, symBinAddr: 0x100011CE0, symSize: 0x70 }
  - { offsetInCU: 0x91EF, offset: 0x1BAB6, size: 0x8, addend: 0x0, symName: __ZN2yy6parser7make_ORENSt3__112basic_stringIcNS1_11char_traitsIcEENS1_9allocatorIcEEEE, symObjAddr: 0x2140, symBinAddr: 0x100011D50, symSize: 0x70 }
  - { offsetInCU: 0x9214, offset: 0x1BADB, size: 0x8, addend: 0x0, symName: __ZN2yy6parser7make_LTENSt3__112basic_stringIcNS1_11char_traitsIcEENS1_9allocatorIcEEEE, symObjAddr: 0x21B0, symBinAddr: 0x100011DC0, symSize: 0x70 }
  - { offsetInCU: 0x9239, offset: 0x1BB00, size: 0x8, addend: 0x0, symName: __ZN2yy6parser7make_GTENSt3__112basic_stringIcNS1_11char_traitsIcEENS1_9allocatorIcEEEE, symObjAddr: 0x2220, symBinAddr: 0x100011E30, symSize: 0x70 }
  - { offsetInCU: 0x925E, offset: 0x1BB25, size: 0x8, addend: 0x0, symName: __ZN2yy6parser7make_EQENSt3__112basic_stringIcNS1_11char_traitsIcEENS1_9allocatorIcEEEE, symObjAddr: 0x2290, symBinAddr: 0x100011EA0, symSize: 0x70 }
  - { offsetInCU: 0x9283, offset: 0x1BB4A, size: 0x8, addend: 0x0, symName: __ZN2yy6parser8make_DIVENSt3__112basic_stringIcNS1_11char_traitsIcEENS1_9allocatorIcEEEE, symObjAddr: 0x2300, symBinAddr: 0x100011F10, symSize: 0x70 }
  - { offsetInCU: 0x92A8, offset: 0x1BB6F, size: 0x8, addend: 0x0, symName: __ZN2yy6parser13make_LBRACKETENSt3__112basic_stringIcNS1_11char_traitsIcEENS1_9allocatorIcEEEE, symObjAddr: 0x2370, symBinAddr: 0x100011F80, symSize: 0x70 }
  - { offsetInCU: 0x92CD, offset: 0x1BB94, size: 0x8, addend: 0x0, symName: __ZN2yy6parser13make_RBRACKETENSt3__112basic_stringIcNS1_11char_traitsIcEENS1_9allocatorIcEEEE, symObjAddr: 0x23E0, symBinAddr: 0x100011FF0, symSize: 0x70 }
  - { offsetInCU: 0x92F2, offset: 0x1BBB9, size: 0x8, addend: 0x0, symName: __ZN2yy6parser14make_SEMICOLONENSt3__112basic_stringIcNS1_11char_traitsIcEENS1_9allocatorIcEEEE, symObjAddr: 0x2450, symBinAddr: 0x100012060, symSize: 0x70 }
  - { offsetInCU: 0x9317, offset: 0x1BBDE, size: 0x8, addend: 0x0, symName: __ZN2yy6parser10make_COMMAENSt3__112basic_stringIcNS1_11char_traitsIcEENS1_9allocatorIcEEEE, symObjAddr: 0x24C0, symBinAddr: 0x1000120D0, symSize: 0x70 }
  - { offsetInCU: 0x933C, offset: 0x1BC03, size: 0x8, addend: 0x0, symName: __ZN2yy6parser11make_ASSIGNENSt3__112basic_stringIcNS1_11char_traitsIcEENS1_9allocatorIcEEEE, symObjAddr: 0x2530, symBinAddr: 0x100012140, symSize: 0x70 }
  - { offsetInCU: 0x9361, offset: 0x1BC28, size: 0x8, addend: 0x0, symName: __ZN2yy6parser9make_PLUSENSt3__112basic_stringIcNS1_11char_traitsIcEENS1_9allocatorIcEEEE, symObjAddr: 0x25A0, symBinAddr: 0x1000121B0, symSize: 0x70 }
  - { offsetInCU: 0x9386, offset: 0x1BC4D, size: 0x8, addend: 0x0, symName: __ZN2yy6parser10make_MINUSENSt3__112basic_stringIcNS1_11char_traitsIcEENS1_9allocatorIcEEEE, symObjAddr: 0x2610, symBinAddr: 0x100012220, symSize: 0x70 }
  - { offsetInCU: 0x93AB, offset: 0x1BC72, size: 0x8, addend: 0x0, symName: __ZN2yy6parser9make_MULTENSt3__112basic_stringIcNS1_11char_traitsIcEENS1_9allocatorIcEEEE, symObjAddr: 0x2680, symBinAddr: 0x100012290, symSize: 0x70 }
  - { offsetInCU: 0x93D0, offset: 0x1BC97, size: 0x8, addend: 0x0, symName: __ZN2yy6parser11make_LPARENENSt3__112basic_stringIcNS1_11char_traitsIcEENS1_9allocatorIcEEEE, symObjAddr: 0x26F0, symBinAddr: 0x100012300, symSize: 0x70 }
  - { offsetInCU: 0x93F5, offset: 0x1BCBC, size: 0x8, addend: 0x0, symName: __ZN2yy6parser11make_RPARENENSt3__112basic_stringIcNS1_11char_traitsIcEENS1_9allocatorIcEEEE, symObjAddr: 0x2760, symBinAddr: 0x100012370, symSize: 0x70 }
  - { offsetInCU: 0x941A, offset: 0x1BCE1, size: 0x8, addend: 0x0, symName: __ZN2yy6parser11make_LBRACEENSt3__112basic_stringIcNS1_11char_traitsIcEENS1_9allocatorIcEEEE, symObjAddr: 0x27D0, symBinAddr: 0x1000123E0, symSize: 0x70 }
  - { offsetInCU: 0x943F, offset: 0x1BD06, size: 0x8, addend: 0x0, symName: __ZN2yy6parser11make_RBRACEENSt3__112basic_stringIcNS1_11char_traitsIcEENS1_9allocatorIcEEEE, symObjAddr: 0x2840, symBinAddr: 0x100012450, symSize: 0x70 }
  - { offsetInCU: 0x9464, offset: 0x1BD2B, size: 0x8, addend: 0x0, symName: __ZN2yy6parser11make_LENGTHENSt3__112basic_stringIcNS1_11char_traitsIcEENS1_9allocatorIcEEEE, symObjAddr: 0x28B0, symBinAddr: 0x1000124C0, symSize: 0x70 }
  - { offsetInCU: 0x9489, offset: 0x1BD50, size: 0x8, addend: 0x0, symName: __ZN2yy6parser8make_DOTENSt3__112basic_stringIcNS1_11char_traitsIcEENS1_9allocatorIcEEEE, symObjAddr: 0x2920, symBinAddr: 0x100012530, symSize: 0x70 }
  - { offsetInCU: 0x94AE, offset: 0x1BD75, size: 0x8, addend: 0x0, symName: __ZN2yy6parser20make_INTEGER_LITERALENSt3__112basic_stringIcNS1_11char_traitsIcEENS1_9allocatorIcEEEE, symObjAddr: 0x2990, symBinAddr: 0x1000125A0, symSize: 0x70 }
  - { offsetInCU: 0x94D3, offset: 0x1BD9A, size: 0x8, addend: 0x0, symName: __ZN2yy6parser15make_IDENTIFIERENSt3__112basic_stringIcNS1_11char_traitsIcEENS1_9allocatorIcEEEE, symObjAddr: 0x2A00, symBinAddr: 0x100012610, symSize: 0x70 }
  - { offsetInCU: 0x94F8, offset: 0x1BDBF, size: 0x8, addend: 0x0, symName: __ZN2yy6parser8make_ENDEv, symObjAddr: 0x2A70, symBinAddr: 0x100012680, symSize: 0x30 }
  - { offsetInCU: 0x950C, offset: 0x1BDD3, size: 0x8, addend: 0x0, symName: __ZL21yy_get_previous_statev, symObjAddr: 0x2AA0, symBinAddr: 0x1000126B0, symSize: 0x140 }
  - { offsetInCU: 0x9568, offset: 0x1BE2F, size: 0x8, addend: 0x0, symName: __ZL16yy_try_NUL_transi, symObjAddr: 0x2BE0, symBinAddr: 0x1000127F0, symSize: 0x100 }
  - { offsetInCU: 0x95C4, offset: 0x1BE8B, size: 0x8, addend: 0x0, symName: __ZL18yy_get_next_bufferv, symObjAddr: 0x2CE0, symBinAddr: 0x1000128F0, symSize: 0x660 }
  - { offsetInCU: 0x96E7, offset: 0x1BFAE, size: 0x8, addend: 0x0, symName: __ZL14yy_fatal_errorPKc, symObjAddr: 0x3340, symBinAddr: 0x100012F50, symSize: 0x40 }
  - { offsetInCU: 0x9712, offset: 0x1BFD9, size: 0x8, addend: 0x0, symName: __Z9yyrestartP7__sFILE, symObjAddr: 0x3380, symBinAddr: 0x100012F90, symSize: 0xD0 }
  - { offsetInCU: 0x973C, offset: 0x1C003, size: 0x8, addend: 0x0, symName: __ZL14yy_init_bufferP15yy_buffer_stateP7__sFILE, symObjAddr: 0x3450, symBinAddr: 0x100013060, symSize: 0x100 }
  - { offsetInCU: 0x9785, offset: 0x1C04C, size: 0x8, addend: 0x0, symName: __Z19yy_switch_to_bufferP15yy_buffer_state, symObjAddr: 0x3550, symBinAddr: 0x100013160, symSize: 0x110 }
  - { offsetInCU: 0x97AF, offset: 0x1C076, size: 0x8, addend: 0x0, symName: __Z7yyallocm, symObjAddr: 0x3660, symBinAddr: 0x100013270, symSize: 0x20 }
  - { offsetInCU: 0x97DD, offset: 0x1C0A4, size: 0x8, addend: 0x0, symName: __Z16yy_delete_bufferP15yy_buffer_state, symObjAddr: 0x3680, symBinAddr: 0x100013290, symSize: 0xB0 }
  - { offsetInCU: 0x9807, offset: 0x1C0CE, size: 0x8, addend: 0x0, symName: __Z6yyfreePv, symObjAddr: 0x3730, symBinAddr: 0x100013340, symSize: 0x20 }
  - { offsetInCU: 0x9831, offset: 0x1C0F8, size: 0x8, addend: 0x0, symName: __Z15yy_flush_bufferP15yy_buffer_state, symObjAddr: 0x3750, symBinAddr: 0x100013360, symSize: 0xC0 }
  - { offsetInCU: 0x985B, offset: 0x1C122, size: 0x8, addend: 0x0, symName: __Z19yypush_buffer_stateP15yy_buffer_state, symObjAddr: 0x3810, symBinAddr: 0x100013420, symSize: 0x130 }
  - { offsetInCU: 0x9885, offset: 0x1C14C, size: 0x8, addend: 0x0, symName: __Z18yypop_buffer_statev, symObjAddr: 0x3940, symBinAddr: 0x100013550, symSize: 0x120 }
  - { offsetInCU: 0x98A0, offset: 0x1C167, size: 0x8, addend: 0x0, symName: __Z14yy_scan_bufferPcm, symObjAddr: 0x3A60, symBinAddr: 0x100013670, symSize: 0x120 }
  - { offsetInCU: 0x98EC, offset: 0x1C1B3, size: 0x8, addend: 0x0, symName: __Z14yy_scan_stringPKc, symObjAddr: 0x3B80, symBinAddr: 0x100013790, symSize: 0x30 }
  - { offsetInCU: 0x991A, offset: 0x1C1E1, size: 0x8, addend: 0x0, symName: __Z13yy_scan_bytesPKcm, symObjAddr: 0x3BB0, symBinAddr: 0x1000137C0, symSize: 0xE0 }
  - { offsetInCU: 0x9993, offset: 0x1C25A, size: 0x8, addend: 0x0, symName: __Z12yyget_linenov, symObjAddr: 0x3C90, symBinAddr: 0x1000138A0, symSize: 0x10 }
  - { offsetInCU: 0x99B2, offset: 0x1C279, size: 0x8, addend: 0x0, symName: __Z8yyget_inv, symObjAddr: 0x3CA0, symBinAddr: 0x1000138B0, symSize: 0x10 }
  - { offsetInCU: 0x99D1, offset: 0x1C298, size: 0x8, addend: 0x0, symName: __Z9yyget_outv, symObjAddr: 0x3CB0, symBinAddr: 0x1000138C0, symSize: 0x10 }
  - { offsetInCU: 0x99F0, offset: 0x1C2B7, size: 0x8, addend: 0x0, symName: __Z10yyget_lengv, symObjAddr: 0x3CC0, symBinAddr: 0x1000138D0, symSize: 0x10 }
  - { offsetInCU: 0x9A0F, offset: 0x1C2D6, size: 0x8, addend: 0x0, symName: __Z10yyget_textv, symObjAddr: 0x3CD0, symBinAddr: 0x1000138E0, symSize: 0x10 }
  - { offsetInCU: 0x9A2E, offset: 0x1C2F5, size: 0x8, addend: 0x0, symName: __Z12yyset_linenoi, symObjAddr: 0x3CE0, symBinAddr: 0x1000138F0, symSize: 0x20 }
  - { offsetInCU: 0x9A58, offset: 0x1C31F, size: 0x8, addend: 0x0, symName: __Z8yyset_inP7__sFILE, symObjAddr: 0x3D00, symBinAddr: 0x100013910, symSize: 0x20 }
  - { offsetInCU: 0x9A82, offset: 0x1C349, size: 0x8, addend: 0x0, symName: __Z9yyset_outP7__sFILE, symObjAddr: 0x3D20, symBinAddr: 0x100013930, symSize: 0x20 }
  - { offsetInCU: 0x9AAC, offset: 0x1C373, size: 0x8, addend: 0x0, symName: __Z11yyget_debugv, symObjAddr: 0x3D40, symBinAddr: 0x100013950, symSize: 0x10 }
  - { offsetInCU: 0x9ACB, offset: 0x1C392, size: 0x8, addend: 0x0, symName: __Z11yyset_debugi, symObjAddr: 0x3D50, symBinAddr: 0x100013960, symSize: 0x20 }
  - { offsetInCU: 0x9AF5, offset: 0x1C3BC, size: 0x8, addend: 0x0, symName: __Z13yylex_destroyv, symObjAddr: 0x3D70, symBinAddr: 0x100013980, symSize: 0xF0 }
  - { offsetInCU: 0x9B14, offset: 0x1C3DB, size: 0x8, addend: 0x0, symName: __ZL15yy_init_globalsv, symObjAddr: 0x3E60, symBinAddr: 0x100013A70, symSize: 0x90 }
  - { offsetInCU: 0x9B33, offset: 0x1C3FA, size: 0x8, addend: 0x0, symName: __Z9yyreallocPvm, symObjAddr: 0x3EF0, symBinAddr: 0x100013B00, symSize: 0x30 }
  - { offsetInCU: 0x9B70, offset: 0x1C437, size: 0x8, addend: 0x0, symName: __ZN2yy6parser11symbol_typeC1EiNSt3__112basic_stringIcNS2_11char_traitsIcEENS2_9allocatorIcEEEE, symObjAddr: 0x3F50, symBinAddr: 0x100013B30, symSize: 0x30 }
  - { offsetInCU: 0x9BB9, offset: 0x1C480, size: 0x8, addend: 0x0, symName: __ZN2yy6parser11symbol_typeC2EiNSt3__112basic_stringIcNS2_11char_traitsIcEENS2_9allocatorIcEEEE, symObjAddr: 0x4120, symBinAddr: 0x100013B60, symSize: 0x30 }
  - { offsetInCU: 0x9C02, offset: 0x1C4C9, size: 0x8, addend: 0x0, symName: __ZN2yy6parser12basic_symbolINS0_7by_kindEEC2ENS0_5token15token_kind_typeEONSt3__112basic_stringIcNS6_11char_traitsIcEENS6_9allocatorIcEEEE, symObjAddr: 0x4150, symBinAddr: 0x100013B90, symSize: 0x40 }
  - { offsetInCU: 0x9C4A, offset: 0x1C511, size: 0x8, addend: 0x0, symName: __ZN2yy6parser7by_kindC2ENS0_5token15token_kind_typeE, symObjAddr: 0x4190, symBinAddr: 0x100013BD0, symSize: 0x30 }
  - { offsetInCU: 0x9C8A, offset: 0x1C551, size: 0x8, addend: 0x0, symName: __ZN2yy6parser10value_typeC1INSt3__112basic_stringIcNS3_11char_traitsIcEENS3_9allocatorIcEEEEEEOT_, symObjAddr: 0x41C0, symBinAddr: 0x100013C00, symSize: 0x30 }
  - { offsetInCU: 0x9CCB, offset: 0x1C592, size: 0x8, addend: 0x0, symName: __ZN2yy6parser10value_typeC2INSt3__112basic_stringIcNS3_11char_traitsIcEENS3_9allocatorIcEEEEEEOT_, symObjAddr: 0x4250, symBinAddr: 0x100013C90, symSize: 0x30 }
  - { offsetInCU: 0x9D0C, offset: 0x1C5D3, size: 0x8, addend: 0x0, symName: __ZN2yy6parser11symbol_typeC1Ei, symObjAddr: 0x42A0, symBinAddr: 0x100013CC0, symSize: 0x30 }
  - { offsetInCU: 0x9D45, offset: 0x1C60C, size: 0x8, addend: 0x0, symName: __ZN2yy6parser11symbol_typeC2Ei, symObjAddr: 0x42D0, symBinAddr: 0x100013CF0, symSize: 0x30 }
  - { offsetInCU: 0x9D7E, offset: 0x1C645, size: 0x8, addend: 0x0, symName: __ZN2yy6parser12basic_symbolINS0_7by_kindEEC2ENS0_5token15token_kind_typeE, symObjAddr: 0x4300, symBinAddr: 0x100013D20, symSize: 0x40 }
  - { offsetInCU: 0x3F, offset: 0x1C6D5, size: 0x8, addend: 0x0, symName: _errCode, symObjAddr: 0xC89F4, symBinAddr: 0x100030040, symSize: 0x0 }
  - { offsetInCU: 0x78, offset: 0x1C70E, size: 0x8, addend: 0x0, symName: __ZNSt3__1L19piecewise_constructE, symObjAddr: 0x162D1, symBinAddr: 0x10002A57B, symSize: 0x0 }
  - { offsetInCU: 0x11C81, offset: 0x2E317, size: 0x8, addend: 0x0, symName: __ZNSt3__16copy_nB7v160006IPKcmPcEENS_9enable_ifIXsr33__is_cpp17_random_access_iteratorIT_EE5valueET1_E4typeES5_T0_S6_, symObjAddr: 0x10A10, symBinAddr: 0x100022CF0, symSize: 0x40 }
  - { offsetInCU: 0x129F4, offset: 0x2F08A, size: 0x8, addend: 0x0, symName: __ZNSt3__1neB7v160006ERKNS_15__list_iteratorIP4NodePvEES6_, symObjAddr: 0xD90, symBinAddr: 0x1000149F0, symSize: 0x30 }
  - { offsetInCU: 0x12A31, offset: 0x2F0C7, size: 0x8, addend: 0x0, symName: __ZNSt3__1eqB7v160006ERKNS_15__list_iteratorIP4NodePvEES6_, symObjAddr: 0x19B0, symBinAddr: 0x100014B30, symSize: 0x30 }
  - { offsetInCU: 0x12A6E, offset: 0x2F104, size: 0x8, addend: 0x0, symName: __ZNSt3__1neB7v160006IcNS_11char_traitsIcEENS_9allocatorIcEEEEbRKNS_12basic_stringIT_T0_T1_EEPKS6_, symObjAddr: 0x1F90, symBinAddr: 0x100015080, symSize: 0x30 }
  - { offsetInCU: 0x12AC6, offset: 0x2F15C, size: 0x8, addend: 0x0, symName: __ZNSt3__1eqB7v160006IcNS_11char_traitsIcEENS_9allocatorIcEEEEbRKNS_12basic_stringIT_T0_T1_EEPKS6_, symObjAddr: 0x1FC0, symBinAddr: 0x1000150B0, symSize: 0x90 }
  - { offsetInCU: 0x12B2D, offset: 0x2F1C3, size: 0x8, addend: 0x0, symName: __ZNSt3__119__debug_db_insert_cB7v160006INS_6vectorIP5ScopeNS_9allocatorIS3_EEEEEEvPT_, symObjAddr: 0x2640, symBinAddr: 0x100015650, symSize: 0x10 }
  - { offsetInCU: 0x12B91, offset: 0x2F227, size: 0x8, addend: 0x0, symName: __ZNSt3__118__debug_db_erase_cB7v160006INS_6vectorIP5ScopeNS_9allocatorIS3_EEEEEEvPT_, symObjAddr: 0x3A40, symBinAddr: 0x1000169C0, symSize: 0x10 }
  - { offsetInCU: 0x12BC2, offset: 0x2F258, size: 0x8, addend: 0x0, symName: __ZNSt3__112__to_addressB7v160006IP5ScopeEEPT_S4_, symObjAddr: 0x3B50, symBinAddr: 0x100016AD0, symSize: 0x10 }
  - { offsetInCU: 0x12BF7, offset: 0x2F28D, size: 0x8, addend: 0x0, symName: __ZNSt3__1neB7v160006ERKNS_21__list_const_iteratorIP4NodePvEES6_, symObjAddr: 0x4D20, symBinAddr: 0x100017C90, symSize: 0x30 }
  - { offsetInCU: 0x12C34, offset: 0x2F2CA, size: 0x8, addend: 0x0, symName: __ZNSt3__1eqB7v160006ERKNS_21__list_const_iteratorIP4NodePvEES6_, symObjAddr: 0x50C0, symBinAddr: 0x100017EC0, symSize: 0x30 }
  - { offsetInCU: 0x12C71, offset: 0x2F307, size: 0x8, addend: 0x0, symName: __ZNSt3__118__debug_db_erase_cB7v160006INS_10__list_impIP4NodeNS_9allocatorIS3_EEEEEEvPT_, symObjAddr: 0x5900, symBinAddr: 0x100017FD0, symSize: 0x10 }
  - { offsetInCU: 0x12CA2, offset: 0x2F338, size: 0x8, addend: 0x0, symName: __ZNSt3__125__debug_db_invalidate_allB7v160006INS_10__list_impIP4NodeNS_9allocatorIS3_EEEEEEvPT_, symObjAddr: 0x5990, symBinAddr: 0x100018060, symSize: 0x10 }
  - { offsetInCU: 0x12CD3, offset: 0x2F369, size: 0x8, addend: 0x0, symName: __ZNSt3__119__debug_db_insert_cB7v160006INS_6vectorIP8VariableNS_9allocatorIS3_EEEEEEvPT_, symObjAddr: 0x62A0, symBinAddr: 0x100018970, symSize: 0x10 }
  - { offsetInCU: 0x12D04, offset: 0x2F39A, size: 0x8, addend: 0x0, symName: __ZNSt3__119__debug_db_insert_cB7v160006INS_6vectorIP6MethodNS_9allocatorIS3_EEEEEEvPT_, symObjAddr: 0x63F0, symBinAddr: 0x100018AC0, symSize: 0x10 }
  - { offsetInCU: 0x12D35, offset: 0x2F3CB, size: 0x8, addend: 0x0, symName: __ZNSt3__118__debug_db_erase_cB7v160006INS_6vectorIP6MethodNS_9allocatorIS3_EEEEEEvPT_, symObjAddr: 0x6680, symBinAddr: 0x100018D50, symSize: 0x10 }
  - { offsetInCU: 0x12D66, offset: 0x2F3FC, size: 0x8, addend: 0x0, symName: __ZNSt3__112__to_addressB7v160006IP6MethodEEPT_S4_, symObjAddr: 0x6790, symBinAddr: 0x100018E60, symSize: 0x10 }
  - { offsetInCU: 0x12D9B, offset: 0x2F431, size: 0x8, addend: 0x0, symName: __ZNSt3__118__debug_db_erase_cB7v160006INS_6vectorIP8VariableNS_9allocatorIS3_EEEEEEvPT_, symObjAddr: 0x6AF0, symBinAddr: 0x1000191C0, symSize: 0x10 }
  - { offsetInCU: 0x12DCC, offset: 0x2F462, size: 0x8, addend: 0x0, symName: __ZNSt3__112__to_addressB7v160006IP8VariableEEPT_S4_, symObjAddr: 0x6C00, symBinAddr: 0x1000192D0, symSize: 0x10 }
  - { offsetInCU: 0x12E38, offset: 0x2F4CE, size: 0x8, addend: 0x0, symName: __ZNSt3__116forward_as_tupleB7v160006IJRKNS_12basic_stringIcNS_11char_traitsIcEENS_9allocatorIcEEEEEEENS_5tupleIJDpOT_EEESC_, symObjAddr: 0x7030, symBinAddr: 0x100019700, symSize: 0x30 }
  - { offsetInCU: 0x12E71, offset: 0x2F507, size: 0x8, addend: 0x0, symName: __ZNSt3__116forward_as_tupleB7v160006IJEEENS_5tupleIJDpOT_EEES4_, symObjAddr: 0x7060, symBinAddr: 0x100019730, symSize: 0x10 }
  - { offsetInCU: 0x12E95, offset: 0x2F52B, size: 0x8, addend: 0x0, symName: __ZNSt3__1ltB7v160006IcNS_11char_traitsIcEENS_9allocatorIcEEEEbRKNS_12basic_stringIT_T0_T1_EESB_, symObjAddr: 0x7620, symBinAddr: 0x100019CF0, symSize: 0x30 }
  - { offsetInCU: 0x12F11, offset: 0x2F5A7, size: 0x8, addend: 0x0, symName: __ZNSt3__118__constexpr_memcmpB7v160006IcEEiPKT_S3_m, symObjAddr: 0x78A0, symBinAddr: 0x100019F40, symSize: 0x30 }
  - { offsetInCU: 0x12F8C, offset: 0x2F622, size: 0x8, addend: 0x0, symName: __ZNSt3__13getB7v160006ILm0EJRKNS_12basic_stringIcNS_11char_traitsIcEENS_9allocatorIcEEEEEEERNS_13tuple_elementIXT_ENS_5tupleIJDpT0_EEEE4typeERSD_, symObjAddr: 0x7DA0, symBinAddr: 0x10001A3C0, symSize: 0x20 }
  - { offsetInCU: 0x12FCF, offset: 0x2F665, size: 0x8, addend: 0x0, symName: __ZNSt3__127__tree_balance_after_insertB7v160006IPNS_16__tree_node_baseIPvEEEEvT_S5_, symObjAddr: 0x7E40, symBinAddr: 0x10001A460, symSize: 0x320 }
  - { offsetInCU: 0x1304D, offset: 0x2F6E3, size: 0x8, addend: 0x0, symName: __ZNSt3__120__tree_is_left_childB7v160006IPNS_16__tree_node_baseIPvEEEEbT_, symObjAddr: 0x81A0, symBinAddr: 0x10001A7C0, symSize: 0x30 }
  - { offsetInCU: 0x13082, offset: 0x2F718, size: 0x8, addend: 0x0, symName: __ZNSt3__118__tree_left_rotateB7v160006IPNS_16__tree_node_baseIPvEEEEvT_, symObjAddr: 0x81D0, symBinAddr: 0x10001A7F0, symSize: 0xD0 }
  - { offsetInCU: 0x130C4, offset: 0x2F75A, size: 0x8, addend: 0x0, symName: __ZNSt3__119__tree_right_rotateB7v160006IPNS_16__tree_node_baseIPvEEEEvT_, symObjAddr: 0x82A0, symBinAddr: 0x10001A8C0, symSize: 0xC0 }
  - { offsetInCU: 0x131FF, offset: 0x2F895, size: 0x8, addend: 0x0, symName: __ZNSt3__119__allocate_at_leastB7v160006INS_9allocatorIP5ScopeEEEENS_19__allocation_resultINS_16allocator_traitsIT_E7pointerEEERS7_m, symObjAddr: 0xA870, symBinAddr: 0x10001CD10, symSize: 0x40 }
  - { offsetInCU: 0x13242, offset: 0x2F8D8, size: 0x8, addend: 0x0, symName: __ZNSt3__142__uninitialized_allocator_move_if_noexceptB7v160006INS_9allocatorIP5ScopeEENS_16reverse_iteratorIPS3_EES7_S3_vEET1_RT_T0_SB_S8_, symObjAddr: 0xAA00, symBinAddr: 0x10001CEA0, symSize: 0x70 }
  - { offsetInCU: 0x132BF, offset: 0x2F955, size: 0x8, addend: 0x0, symName: __ZNSt3__14swapB7v160006IPP5ScopeEENS_9enable_ifIXaasr21is_move_constructibleIT_EE5valuesr18is_move_assignableIS5_EE5valueEvE4typeERS5_S8_, symObjAddr: 0xAAC0, symBinAddr: 0x10001CF60, symSize: 0x40 }
  - { offsetInCU: 0x13310, offset: 0x2F9A6, size: 0x8, addend: 0x0, symName: __ZNSt3__125__debug_db_invalidate_allB7v160006INS_6vectorIP5ScopeNS_9allocatorIS3_EEEEEEvPT_, symObjAddr: 0xABB0, symBinAddr: 0x10001D050, symSize: 0x10 }
  - { offsetInCU: 0x13341, offset: 0x2F9D7, size: 0x8, addend: 0x0, symName: __ZNSt3__14moveB7v160006INS_16reverse_iteratorIPP5ScopeEES5_EET0_T_S7_S6_, symObjAddr: 0xABC0, symBinAddr: 0x10001D060, symSize: 0x80 }
  - { offsetInCU: 0x1339B, offset: 0x2FA31, size: 0x8, addend: 0x0, symName: __ZNSt3__16__moveB7v160006INS_17_ClassicAlgPolicyENS_16reverse_iteratorIPP5ScopeEES6_S6_EENS_4pairIT0_T2_EES8_T1_S9_, symObjAddr: 0xAC40, symBinAddr: 0x10001D0E0, symSize: 0x90 }
  - { offsetInCU: 0x13407, offset: 0x2FA9D, size: 0x8, addend: 0x0, symName: __ZNSt3__123__dispatch_copy_or_moveB7v160006INS_17_ClassicAlgPolicyENS_11__move_loopIS1_EENS_14__move_trivialENS_16reverse_iteratorIPP5ScopeEES9_S9_EENS_4pairIT2_T4_EESB_T3_SC_, symObjAddr: 0xACD0, symBinAddr: 0x10001D170, symSize: 0x90 }
  - { offsetInCU: 0x13485, offset: 0x2FB1B, size: 0x8, addend: 0x0, symName: __ZNSt3__121__unwrap_and_dispatchB7v160006INS_10__overloadINS_11__move_loopINS_17_ClassicAlgPolicyEEENS_14__move_trivialEEENS_16reverse_iteratorIPP5ScopeEESB_SB_Li0EEENS_4pairIT0_T2_EESD_T1_SE_, symObjAddr: 0xAD60, symBinAddr: 0x10001D200, symSize: 0x210 }
  - { offsetInCU: 0x13515, offset: 0x2FBAB, size: 0x8, addend: 0x0, symName: __ZNSt3__114__unwrap_rangeB7v160006INS_16reverse_iteratorIPP5ScopeEES5_EENS_4pairIT0_S7_EET_S9_, symObjAddr: 0xAF70, symBinAddr: 0x10001D410, symSize: 0x90 }
  - { offsetInCU: 0x1370E, offset: 0x2FDA4, size: 0x8, addend: 0x0, symName: __ZNSt3__113__unwrap_iterB7v160006INS_16reverse_iteratorIPP5ScopeEENS_18__unwrap_iter_implIS5_Lb0EEELi0EEEDTclsrT0_8__unwrapclsr3stdE7declvalIT_EEEES9_, symObjAddr: 0xB0A0, symBinAddr: 0x10001D540, symSize: 0x40 }
  - { offsetInCU: 0x13753, offset: 0x2FDE9, size: 0x8, addend: 0x0, symName: __ZNSt3__19make_pairB7v160006INS_16reverse_iteratorIPP5ScopeEES5_EENS_4pairINS_18__unwrap_ref_decayIT_E4typeENS7_IT0_E4typeEEEOS8_OSB_, symObjAddr: 0xB0E0, symBinAddr: 0x10001D580, symSize: 0x30 }
  - { offsetInCU: 0x137A2, offset: 0x2FE38, size: 0x8, addend: 0x0, symName: __ZNSt3__114__rewrap_rangeB7v160006INS_16reverse_iteratorIPP5ScopeEES5_EET_S6_T0_, symObjAddr: 0xB110, symBinAddr: 0x10001D5B0, symSize: 0x60 }
  - { offsetInCU: 0x137EE, offset: 0x2FE84, size: 0x8, addend: 0x0, symName: __ZNSt3__113__rewrap_iterB7v160006INS_16reverse_iteratorIPP5ScopeEES5_NS_18__unwrap_iter_implIS5_Lb0EEEEET_S8_T0_, symObjAddr: 0xB170, symBinAddr: 0x10001D610, symSize: 0x70 }
  - { offsetInCU: 0x13843, offset: 0x2FED9, size: 0x8, addend: 0x0, symName: __ZNSt3__1neB7v160006IPP5ScopeS3_EEbRKNS_16reverse_iteratorIT_EERKNS4_IT0_EE, symObjAddr: 0xB1E0, symBinAddr: 0x10001D680, symSize: 0x40 }
  - { offsetInCU: 0x139A7, offset: 0x3003D, size: 0x8, addend: 0x0, symName: __ZNSt3__119__allocate_at_leastB7v160006INS_9allocatorIP6MethodEEEENS_19__allocation_resultINS_16allocator_traitsIT_E7pointerEEERS7_m, symObjAddr: 0xBFB0, symBinAddr: 0x10001E450, symSize: 0x40 }
  - { offsetInCU: 0x139EA, offset: 0x30080, size: 0x8, addend: 0x0, symName: __ZNSt3__142__uninitialized_allocator_move_if_noexceptB7v160006INS_9allocatorIP6MethodEENS_16reverse_iteratorIPS3_EES7_S3_vEET1_RT_T0_SB_S8_, symObjAddr: 0xC140, symBinAddr: 0x10001E5E0, symSize: 0x70 }
  - { offsetInCU: 0x13A67, offset: 0x300FD, size: 0x8, addend: 0x0, symName: __ZNSt3__14swapB7v160006IPP6MethodEENS_9enable_ifIXaasr21is_move_constructibleIT_EE5valuesr18is_move_assignableIS5_EE5valueEvE4typeERS5_S8_, symObjAddr: 0xC200, symBinAddr: 0x10001E6A0, symSize: 0x40 }
  - { offsetInCU: 0x13AB8, offset: 0x3014E, size: 0x8, addend: 0x0, symName: __ZNSt3__125__debug_db_invalidate_allB7v160006INS_6vectorIP6MethodNS_9allocatorIS3_EEEEEEvPT_, symObjAddr: 0xC2F0, symBinAddr: 0x10001E790, symSize: 0x10 }
  - { offsetInCU: 0x13AE9, offset: 0x3017F, size: 0x8, addend: 0x0, symName: __ZNSt3__14moveB7v160006INS_16reverse_iteratorIPP6MethodEES5_EET0_T_S7_S6_, symObjAddr: 0xC300, symBinAddr: 0x10001E7A0, symSize: 0x80 }
  - { offsetInCU: 0x13B43, offset: 0x301D9, size: 0x8, addend: 0x0, symName: __ZNSt3__16__moveB7v160006INS_17_ClassicAlgPolicyENS_16reverse_iteratorIPP6MethodEES6_S6_EENS_4pairIT0_T2_EES8_T1_S9_, symObjAddr: 0xC380, symBinAddr: 0x10001E820, symSize: 0x90 }
  - { offsetInCU: 0x13BAF, offset: 0x30245, size: 0x8, addend: 0x0, symName: __ZNSt3__123__dispatch_copy_or_moveB7v160006INS_17_ClassicAlgPolicyENS_11__move_loopIS1_EENS_14__move_trivialENS_16reverse_iteratorIPP6MethodEES9_S9_EENS_4pairIT2_T4_EESB_T3_SC_, symObjAddr: 0xC410, symBinAddr: 0x10001E8B0, symSize: 0x90 }
  - { offsetInCU: 0x13C2D, offset: 0x302C3, size: 0x8, addend: 0x0, symName: __ZNSt3__121__unwrap_and_dispatchB7v160006INS_10__overloadINS_11__move_loopINS_17_ClassicAlgPolicyEEENS_14__move_trivialEEENS_16reverse_iteratorIPP6MethodEESB_SB_Li0EEENS_4pairIT0_T2_EESD_T1_SE_, symObjAddr: 0xC4A0, symBinAddr: 0x10001E940, symSize: 0x210 }
  - { offsetInCU: 0x13CBD, offset: 0x30353, size: 0x8, addend: 0x0, symName: __ZNSt3__114__unwrap_rangeB7v160006INS_16reverse_iteratorIPP6MethodEES5_EENS_4pairIT0_S7_EET_S9_, symObjAddr: 0xC6B0, symBinAddr: 0x10001EB50, symSize: 0x90 }
  - { offsetInCU: 0x13DDD, offset: 0x30473, size: 0x8, addend: 0x0, symName: __ZNSt3__113__unwrap_iterB7v160006INS_16reverse_iteratorIPP6MethodEENS_18__unwrap_iter_implIS5_Lb0EEELi0EEEDTclsrT0_8__unwrapclsr3stdE7declvalIT_EEEES9_, symObjAddr: 0xC7E0, symBinAddr: 0x10001EC80, symSize: 0x40 }
  - { offsetInCU: 0x13E22, offset: 0x304B8, size: 0x8, addend: 0x0, symName: __ZNSt3__19make_pairB7v160006INS_16reverse_iteratorIPP6MethodEES5_EENS_4pairINS_18__unwrap_ref_decayIT_E4typeENS7_IT0_E4typeEEEOS8_OSB_, symObjAddr: 0xC820, symBinAddr: 0x10001ECC0, symSize: 0x30 }
  - { offsetInCU: 0x13E71, offset: 0x30507, size: 0x8, addend: 0x0, symName: __ZNSt3__114__rewrap_rangeB7v160006INS_16reverse_iteratorIPP6MethodEES5_EET_S6_T0_, symObjAddr: 0xC850, symBinAddr: 0x10001ECF0, symSize: 0x60 }
  - { offsetInCU: 0x13EBD, offset: 0x30553, size: 0x8, addend: 0x0, symName: __ZNSt3__113__rewrap_iterB7v160006INS_16reverse_iteratorIPP6MethodEES5_NS_18__unwrap_iter_implIS5_Lb0EEEEET_S8_T0_, symObjAddr: 0xC8B0, symBinAddr: 0x10001ED50, symSize: 0x70 }
  - { offsetInCU: 0x13F12, offset: 0x305A8, size: 0x8, addend: 0x0, symName: __ZNSt3__1neB7v160006IPP6MethodS3_EEbRKNS_16reverse_iteratorIT_EERKNS4_IT0_EE, symObjAddr: 0xC920, symBinAddr: 0x10001EDC0, symSize: 0x40 }
  - { offsetInCU: 0x13FCA, offset: 0x30660, size: 0x8, addend: 0x0, symName: __ZNSt3__119__allocate_at_leastB7v160006INS_9allocatorIP8VariableEEEENS_19__allocation_resultINS_16allocator_traitsIT_E7pointerEEERS7_m, symObjAddr: 0xD370, symBinAddr: 0x10001F810, symSize: 0x40 }
  - { offsetInCU: 0x1400D, offset: 0x306A3, size: 0x8, addend: 0x0, symName: __ZNSt3__142__uninitialized_allocator_move_if_noexceptB7v160006INS_9allocatorIP8VariableEENS_16reverse_iteratorIPS3_EES7_S3_vEET1_RT_T0_SB_S8_, symObjAddr: 0xD500, symBinAddr: 0x10001F9A0, symSize: 0x70 }
  - { offsetInCU: 0x1408A, offset: 0x30720, size: 0x8, addend: 0x0, symName: __ZNSt3__14swapB7v160006IPP8VariableEENS_9enable_ifIXaasr21is_move_constructibleIT_EE5valuesr18is_move_assignableIS5_EE5valueEvE4typeERS5_S8_, symObjAddr: 0xD5C0, symBinAddr: 0x10001FA60, symSize: 0x40 }
  - { offsetInCU: 0x140DB, offset: 0x30771, size: 0x8, addend: 0x0, symName: __ZNSt3__125__debug_db_invalidate_allB7v160006INS_6vectorIP8VariableNS_9allocatorIS3_EEEEEEvPT_, symObjAddr: 0xD6B0, symBinAddr: 0x10001FB50, symSize: 0x10 }
  - { offsetInCU: 0x1410C, offset: 0x307A2, size: 0x8, addend: 0x0, symName: __ZNSt3__14moveB7v160006INS_16reverse_iteratorIPP8VariableEES5_EET0_T_S7_S6_, symObjAddr: 0xD6C0, symBinAddr: 0x10001FB60, symSize: 0x80 }
  - { offsetInCU: 0x14166, offset: 0x307FC, size: 0x8, addend: 0x0, symName: __ZNSt3__16__moveB7v160006INS_17_ClassicAlgPolicyENS_16reverse_iteratorIPP8VariableEES6_S6_EENS_4pairIT0_T2_EES8_T1_S9_, symObjAddr: 0xD740, symBinAddr: 0x10001FBE0, symSize: 0x90 }
  - { offsetInCU: 0x141D2, offset: 0x30868, size: 0x8, addend: 0x0, symName: __ZNSt3__123__dispatch_copy_or_moveB7v160006INS_17_ClassicAlgPolicyENS_11__move_loopIS1_EENS_14__move_trivialENS_16reverse_iteratorIPP8VariableEES9_S9_EENS_4pairIT2_T4_EESB_T3_SC_, symObjAddr: 0xD7D0, symBinAddr: 0x10001FC70, symSize: 0x90 }
  - { offsetInCU: 0x14250, offset: 0x308E6, size: 0x8, addend: 0x0, symName: __ZNSt3__121__unwrap_and_dispatchB7v160006INS_10__overloadINS_11__move_loopINS_17_ClassicAlgPolicyEEENS_14__move_trivialEEENS_16reverse_iteratorIPP8VariableEESB_SB_Li0EEENS_4pairIT0_T2_EESD_T1_SE_, symObjAddr: 0xD860, symBinAddr: 0x10001FD00, symSize: 0x210 }
  - { offsetInCU: 0x142E0, offset: 0x30976, size: 0x8, addend: 0x0, symName: __ZNSt3__114__unwrap_rangeB7v160006INS_16reverse_iteratorIPP8VariableEES5_EENS_4pairIT0_S7_EET_S9_, symObjAddr: 0xDA70, symBinAddr: 0x10001FF10, symSize: 0x90 }
  - { offsetInCU: 0x14400, offset: 0x30A96, size: 0x8, addend: 0x0, symName: __ZNSt3__113__unwrap_iterB7v160006INS_16reverse_iteratorIPP8VariableEENS_18__unwrap_iter_implIS5_Lb0EEELi0EEEDTclsrT0_8__unwrapclsr3stdE7declvalIT_EEEES9_, symObjAddr: 0xDBA0, symBinAddr: 0x100020040, symSize: 0x40 }
  - { offsetInCU: 0x14445, offset: 0x30ADB, size: 0x8, addend: 0x0, symName: __ZNSt3__19make_pairB7v160006INS_16reverse_iteratorIPP8VariableEES5_EENS_4pairINS_18__unwrap_ref_decayIT_E4typeENS7_IT0_E4typeEEEOS8_OSB_, symObjAddr: 0xDBE0, symBinAddr: 0x100020080, symSize: 0x30 }
  - { offsetInCU: 0x14494, offset: 0x30B2A, size: 0x8, addend: 0x0, symName: __ZNSt3__114__rewrap_rangeB7v160006INS_16reverse_iteratorIPP8VariableEES5_EET_S6_T0_, symObjAddr: 0xDC10, symBinAddr: 0x1000200B0, symSize: 0x60 }
  - { offsetInCU: 0x144E0, offset: 0x30B76, size: 0x8, addend: 0x0, symName: __ZNSt3__113__rewrap_iterB7v160006INS_16reverse_iteratorIPP8VariableEES5_NS_18__unwrap_iter_implIS5_Lb0EEEEET_S8_T0_, symObjAddr: 0xDC70, symBinAddr: 0x100020110, symSize: 0x70 }
  - { offsetInCU: 0x14535, offset: 0x30BCB, size: 0x8, addend: 0x0, symName: __ZNSt3__1neB7v160006IPP8VariableS3_EEbRKNS_16reverse_iteratorIT_EERKNS4_IT0_EE, symObjAddr: 0xDCE0, symBinAddr: 0x100020180, symSize: 0x40 }
  - { offsetInCU: 0x145ED, offset: 0x30C83, size: 0x8, addend: 0x0, symName: __ZNSt3__1neB7v160006ERKNS_20__map_const_iteratorINS_21__tree_const_iteratorINS_12__value_typeINS_12basic_stringIcNS_11char_traitsIcEENS_9allocatorIcEEEEP5ClassEEPNS_11__tree_nodeISB_PvEElEEEESJ_, symObjAddr: 0xE210, symBinAddr: 0x1000206B0, symSize: 0x30 }
  - { offsetInCU: 0x1462A, offset: 0x30CC0, size: 0x8, addend: 0x0, symName: __ZNSt3__1neB7v160006ERKNS_20__map_const_iteratorINS_21__tree_const_iteratorINS_12__value_typeINS_12basic_stringIcNS_11char_traitsIcEENS_9allocatorIcEEEEP6MethodEEPNS_11__tree_nodeISB_PvEElEEEESJ_, symObjAddr: 0xE310, symBinAddr: 0x1000207B0, symSize: 0x30 }
  - { offsetInCU: 0x14667, offset: 0x30CFD, size: 0x8, addend: 0x0, symName: __ZNSt3__1neB7v160006ERKNS_20__map_const_iteratorINS_21__tree_const_iteratorINS_12__value_typeINS_12basic_stringIcNS_11char_traitsIcEENS_9allocatorIcEEEEP8VariableEEPNS_11__tree_nodeISB_PvEElEEEESJ_, symObjAddr: 0xE410, symBinAddr: 0x1000208B0, symSize: 0x30 }
  - { offsetInCU: 0x146A4, offset: 0x30D3A, size: 0x8, addend: 0x0, symName: __ZNSt3__1neB7v160006ERKNS_21__tree_const_iteratorINS_12__value_typeINS_12basic_stringIcNS_11char_traitsIcEENS_9allocatorIcEEEEP5ClassEEPNS_11__tree_nodeISA_PvEElEESH_, symObjAddr: 0xE510, symBinAddr: 0x1000209B0, symSize: 0x30 }
  - { offsetInCU: 0x146E1, offset: 0x30D77, size: 0x8, addend: 0x0, symName: __ZNSt3__1eqB7v160006ERKNS_21__tree_const_iteratorINS_12__value_typeINS_12basic_stringIcNS_11char_traitsIcEENS_9allocatorIcEEEEP5ClassEEPNS_11__tree_nodeISA_PvEElEESH_, symObjAddr: 0xE540, symBinAddr: 0x1000209E0, symSize: 0x30 }
  - { offsetInCU: 0x1471E, offset: 0x30DB4, size: 0x8, addend: 0x0, symName: __ZNSt3__120__throw_out_of_rangeB7v160006EPKc, symObjAddr: 0xE870, symBinAddr: 0x100020D10, symSize: 0x70 }
  - { offsetInCU: 0x14749, offset: 0x30DDF, size: 0x8, addend: 0x0, symName: __ZNSt3__1neB7v160006ERKNS_21__tree_const_iteratorINS_12__value_typeINS_12basic_stringIcNS_11char_traitsIcEENS_9allocatorIcEEEEP6MethodEEPNS_11__tree_nodeISA_PvEElEESH_, symObjAddr: 0xE950, symBinAddr: 0x100020DF0, symSize: 0x30 }
  - { offsetInCU: 0x14786, offset: 0x30E1C, size: 0x8, addend: 0x0, symName: __ZNSt3__1eqB7v160006ERKNS_21__tree_const_iteratorINS_12__value_typeINS_12basic_stringIcNS_11char_traitsIcEENS_9allocatorIcEEEEP6MethodEEPNS_11__tree_nodeISA_PvEElEESH_, symObjAddr: 0xE980, symBinAddr: 0x100020E20, symSize: 0x30 }
  - { offsetInCU: 0x147C3, offset: 0x30E59, size: 0x8, addend: 0x0, symName: __ZNSt3__1neB7v160006ERKNS_21__tree_const_iteratorINS_12__value_typeINS_12basic_stringIcNS_11char_traitsIcEENS_9allocatorIcEEEEP8VariableEEPNS_11__tree_nodeISA_PvEElEESH_, symObjAddr: 0xECB0, symBinAddr: 0x100021150, symSize: 0x30 }
  - { offsetInCU: 0x14800, offset: 0x30E96, size: 0x8, addend: 0x0, symName: __ZNSt3__1eqB7v160006ERKNS_21__tree_const_iteratorINS_12__value_typeINS_12basic_stringIcNS_11char_traitsIcEENS_9allocatorIcEEEEP8VariableEEPNS_11__tree_nodeISA_PvEElEESH_, symObjAddr: 0xECE0, symBinAddr: 0x100021180, symSize: 0x30 }
  - { offsetInCU: 0x1483D, offset: 0x30ED3, size: 0x8, addend: 0x0, symName: __ZNSt3__1plB7v160006IcNS_11char_traitsIcEENS_9allocatorIcEEEENS_12basic_stringIT_T0_T1_EEOS9_PKS6_, symObjAddr: 0xFAF0, symBinAddr: 0x100021F90, symSize: 0x50 }
  - { offsetInCU: 0x14895, offset: 0x30F2B, size: 0x8, addend: 0x0, symName: __ZNSt3__1plB7v160006IcNS_11char_traitsIcEENS_9allocatorIcEEEENS_12basic_stringIT_T0_T1_EEOS9_RKS9_, symObjAddr: 0xFB40, symBinAddr: 0x100021FE0, symSize: 0x50 }
  - { offsetInCU: 0x148ED, offset: 0x30F83, size: 0x8, addend: 0x0, symName: __ZNSt3__1plB7v160006IcNS_11char_traitsIcEENS_9allocatorIcEEEENS_12basic_stringIT_T0_T1_EERKS9_PKS6_, symObjAddr: 0xFB90, symBinAddr: 0x100022030, symSize: 0x100 }
  - { offsetInCU: 0x1498F, offset: 0x31025, size: 0x8, addend: 0x0, symName: __ZNSt3__1neB7v160006ERKNS_14__map_iteratorINS_15__tree_iteratorINS_12__value_typeINS_12basic_stringIcNS_11char_traitsIcEENS_9allocatorIcEEEEP5ClassEEPNS_11__tree_nodeISB_PvEElEEEESJ_, symObjAddr: 0xFCF0, symBinAddr: 0x100022190, symSize: 0x30 }
  - { offsetInCU: 0x149CC, offset: 0x31062, size: 0x8, addend: 0x0, symName: __ZNSt3__1neB7v160006ERKNS_14__map_iteratorINS_15__tree_iteratorINS_12__value_typeINS_12basic_stringIcNS_11char_traitsIcEENS_9allocatorIcEEEEP6MethodEEPNS_11__tree_nodeISB_PvEElEEEESJ_, symObjAddr: 0xFE40, symBinAddr: 0x1000222B0, symSize: 0x30 }
  - { offsetInCU: 0x14A09, offset: 0x3109F, size: 0x8, addend: 0x0, symName: __ZNSt3__1neB7v160006ERKNS_14__map_iteratorINS_15__tree_iteratorINS_12__value_typeINS_12basic_stringIcNS_11char_traitsIcEENS_9allocatorIcEEEEP8VariableEEPNS_11__tree_nodeISB_PvEElEEEESJ_, symObjAddr: 0xFF60, symBinAddr: 0x1000223D0, symSize: 0x30 }
  - { offsetInCU: 0x14A46, offset: 0x310DC, size: 0x8, addend: 0x0, symName: __ZNSt3__1neB7v160006IPP5ScopeEEbRKNS_11__wrap_iterIT_EES8_, symObjAddr: 0x10080, symBinAddr: 0x1000224F0, symSize: 0x30 }
  - { offsetInCU: 0x14A89, offset: 0x3111F, size: 0x8, addend: 0x0, symName: __ZNSt3__112__to_addressB7v160006IcEEPT_S2_, symObjAddr: 0x102E0, symBinAddr: 0x1000225C0, symSize: 0x10 }
  - { offsetInCU: 0x14CF3, offset: 0x31389, size: 0x8, addend: 0x0, symName: __ZNSt3__14copyB7v160006IPKcPcEET0_T_S5_S4_, symObjAddr: 0x10A50, symBinAddr: 0x100022D30, symSize: 0x40 }
  - { offsetInCU: 0x14D4D, offset: 0x313E3, size: 0x8, addend: 0x0, symName: __ZNSt3__16__copyB7v160006INS_17_ClassicAlgPolicyEPKcS3_PcEENS_4pairIT0_T2_EES6_T1_S7_, symObjAddr: 0x10A90, symBinAddr: 0x100022D70, symSize: 0x40 }
  - { offsetInCU: 0x14DB9, offset: 0x3144F, size: 0x8, addend: 0x0, symName: __ZNSt3__123__dispatch_copy_or_moveB7v160006INS_17_ClassicAlgPolicyENS_11__copy_loopIS1_EENS_14__copy_trivialEPKcS6_PcEENS_4pairIT2_T4_EES9_T3_SA_, symObjAddr: 0x10AD0, symBinAddr: 0x100022DB0, symSize: 0x40 }
  - { offsetInCU: 0x14E37, offset: 0x314CD, size: 0x8, addend: 0x0, symName: __ZNSt3__121__unwrap_and_dispatchB7v160006INS_10__overloadINS_11__copy_loopINS_17_ClassicAlgPolicyEEENS_14__copy_trivialEEEPKcS8_PcLi0EEENS_4pairIT0_T2_EESB_T1_SC_, symObjAddr: 0x10B10, symBinAddr: 0x100022DF0, symSize: 0xB0 }
  - { offsetInCU: 0x14EC7, offset: 0x3155D, size: 0x8, addend: 0x0, symName: __ZNSt3__114__unwrap_rangeB7v160006IPKcS2_EENS_4pairIT0_S4_EET_S6_, symObjAddr: 0x10BC0, symBinAddr: 0x100022EA0, symSize: 0x50 }
  - { offsetInCU: 0x1505D, offset: 0x316F3, size: 0x8, addend: 0x0, symName: __ZNSt3__113__unwrap_iterB7v160006IPcNS_18__unwrap_iter_implIS1_Lb1EEELi0EEEDTclsrT0_8__unwrapclsr3stdE7declvalIT_EEEES5_, symObjAddr: 0x10C50, symBinAddr: 0x100022F30, symSize: 0x20 }
  - { offsetInCU: 0x150A2, offset: 0x31738, size: 0x8, addend: 0x0, symName: __ZNSt3__19make_pairB7v160006IPKcPcEENS_4pairINS_18__unwrap_ref_decayIT_E4typeENS5_IT0_E4typeEEEOS6_OS9_, symObjAddr: 0x10C70, symBinAddr: 0x100022F50, symSize: 0x30 }
  - { offsetInCU: 0x150F1, offset: 0x31787, size: 0x8, addend: 0x0, symName: __ZNSt3__114__rewrap_rangeB7v160006IPKcS2_EET_S3_T0_, symObjAddr: 0x10CA0, symBinAddr: 0x100022F80, symSize: 0x30 }
  - { offsetInCU: 0x1513D, offset: 0x317D3, size: 0x8, addend: 0x0, symName: __ZNSt3__113__rewrap_iterB7v160006IPcS1_NS_18__unwrap_iter_implIS1_Lb1EEEEET_S4_T0_, symObjAddr: 0x10CD0, symBinAddr: 0x100022FB0, symSize: 0x40 }
  - { offsetInCU: 0x15192, offset: 0x31828, size: 0x8, addend: 0x0, symName: __ZNSt3__19make_pairB7v160006IPKcS2_EENS_4pairINS_18__unwrap_ref_decayIT_E4typeENS4_IT0_E4typeEEEOS5_OS8_, symObjAddr: 0x10D10, symBinAddr: 0x100022FF0, symSize: 0x30 }
  - { offsetInCU: 0x151E1, offset: 0x31877, size: 0x8, addend: 0x0, symName: __ZNSt3__113__unwrap_iterB7v160006IPKcNS_18__unwrap_iter_implIS2_Lb1EEELi0EEEDTclsrT0_8__unwrapclsr3stdE7declvalIT_EEEES6_, symObjAddr: 0x10D40, symBinAddr: 0x100023020, symSize: 0x20 }
  - { offsetInCU: 0x1534D, offset: 0x319E3, size: 0x8, addend: 0x0, symName: __ZNSt3__119__copy_trivial_implB7v160006IKccEENS_4pairIPT_PT0_EES4_S4_S6_, symObjAddr: 0x10DE0, symBinAddr: 0x1000230C0, symSize: 0x70 }
  - { offsetInCU: 0x153B5, offset: 0x31A4B, size: 0x8, addend: 0x0, symName: __ZNSt3__19make_pairB7v160006IRPKcPcEENS_4pairINS_18__unwrap_ref_decayIT_E4typeENS6_IT0_E4typeEEEOS7_OSA_, symObjAddr: 0x10E50, symBinAddr: 0x100023130, symSize: 0x30 }
  - { offsetInCU: 0x15457, offset: 0x31AED, size: 0x8, addend: 0x0, symName: __ZNSt3__113__rewrap_iterB7v160006IPKcS2_NS_18__unwrap_iter_implIS2_Lb1EEEEET_S5_T0_, symObjAddr: 0x10F60, symBinAddr: 0x100023240, symSize: 0x40 }
  - { offsetInCU: 0x154AC, offset: 0x31B42, size: 0x8, addend: 0x0, symName: __ZNSt3__16fill_nB7v160006IPcmcEET_S2_T0_RKT1_, symObjAddr: 0x11020, symBinAddr: 0x100023300, symSize: 0x40 }
  - { offsetInCU: 0x1550F, offset: 0x31BA5, size: 0x8, addend: 0x0, symName: __ZNSt3__18__fill_nB7v160006IPcmcEET_S2_T0_RKT1_, symObjAddr: 0x11060, symBinAddr: 0x100023340, symSize: 0x50 }
  - { offsetInCU: 0x15572, offset: 0x31C08, size: 0x8, addend: 0x0, symName: __ZNSt3__121__convert_to_integralB7v160006Em, symObjAddr: 0x110B0, symBinAddr: 0x100023390, symSize: 0x10 }
  - { offsetInCU: 0x1559E, offset: 0x31C34, size: 0x8, addend: 0x0, symName: __ZNSt3__1neB7v160006ERKNS_15__tree_iteratorINS_12__value_typeINS_12basic_stringIcNS_11char_traitsIcEENS_9allocatorIcEEEEP5ClassEEPNS_11__tree_nodeISA_PvEElEESH_, symObjAddr: 0x111C0, symBinAddr: 0x1000234A0, symSize: 0x30 }
  - { offsetInCU: 0x155DB, offset: 0x31C71, size: 0x8, addend: 0x0, symName: __ZNSt3__1eqB7v160006ERKNS_15__tree_iteratorINS_12__value_typeINS_12basic_stringIcNS_11char_traitsIcEENS_9allocatorIcEEEEP5ClassEEPNS_11__tree_nodeISA_PvEElEESH_, symObjAddr: 0x111F0, symBinAddr: 0x1000234D0, symSize: 0x30 }
  - { offsetInCU: 0x15618, offset: 0x31CAE, size: 0x8, addend: 0x0, symName: __ZNSt3__116__tree_next_iterB7v160006IPNS_15__tree_end_nodeIPNS_16__tree_node_baseIPvEEEES5_EET_T0_, symObjAddr: 0x11290, symBinAddr: 0x100023570, symSize: 0x80 }
  - { offsetInCU: 0x15656, offset: 0x31CEC, size: 0x8, addend: 0x0, symName: __ZNSt3__110__tree_minB7v160006IPNS_16__tree_node_baseIPvEEEET_S5_, symObjAddr: 0x11310, symBinAddr: 0x1000235F0, symSize: 0x30 }
  - { offsetInCU: 0x1568B, offset: 0x31D21, size: 0x8, addend: 0x0, symName: __ZNSt3__1neB7v160006ERKNS_15__tree_iteratorINS_12__value_typeINS_12basic_stringIcNS_11char_traitsIcEENS_9allocatorIcEEEEP6MethodEEPNS_11__tree_nodeISA_PvEElEESH_, symObjAddr: 0x11440, symBinAddr: 0x100023720, symSize: 0x30 }
  - { offsetInCU: 0x156C8, offset: 0x31D5E, size: 0x8, addend: 0x0, symName: __ZNSt3__1eqB7v160006ERKNS_15__tree_iteratorINS_12__value_typeINS_12basic_stringIcNS_11char_traitsIcEENS_9allocatorIcEEEEP6MethodEEPNS_11__tree_nodeISA_PvEElEESH_, symObjAddr: 0x11470, symBinAddr: 0x100023750, symSize: 0x30 }
  - { offsetInCU: 0x15705, offset: 0x31D9B, size: 0x8, addend: 0x0, symName: __ZNSt3__1neB7v160006ERKNS_15__tree_iteratorINS_12__value_typeINS_12basic_stringIcNS_11char_traitsIcEENS_9allocatorIcEEEEP8VariableEEPNS_11__tree_nodeISA_PvEElEESH_, symObjAddr: 0x11610, symBinAddr: 0x1000238F0, symSize: 0x30 }
  - { offsetInCU: 0x15742, offset: 0x31DD8, size: 0x8, addend: 0x0, symName: __ZNSt3__1eqB7v160006ERKNS_15__tree_iteratorINS_12__value_typeINS_12basic_stringIcNS_11char_traitsIcEENS_9allocatorIcEEEEP8VariableEEPNS_11__tree_nodeISA_PvEElEESH_, symObjAddr: 0x11640, symBinAddr: 0x100023920, symSize: 0x30 }
  - { offsetInCU: 0x1577F, offset: 0x31E15, size: 0x8, addend: 0x0, symName: __ZNSt3__1eqB7v160006IPP5ScopeEEbRKNS_11__wrap_iterIT_EES8_, symObjAddr: 0x11760, symBinAddr: 0x100023A40, symSize: 0x40 }
  - { offsetInCU: 0x157C2, offset: 0x31E58, size: 0x8, addend: 0x0, symName: __ZNSt3__1neB7v160006IcNS_11char_traitsIcEENS_9allocatorIcEEEEbRKNS_12basic_stringIT_T0_T1_EESB_, symObjAddr: 0x14810, symBinAddr: 0x100026AD0, symSize: 0x30 }
  - { offsetInCU: 0x1581A, offset: 0x31EB0, size: 0x8, addend: 0x0, symName: __ZNSt3__1neB7v160006IPP6MethodEEbRKNS_11__wrap_iterIT_EES8_, symObjAddr: 0x14AC0, symBinAddr: 0x100026D30, symSize: 0x30 }
  - { offsetInCU: 0x1585D, offset: 0x31EF3, size: 0x8, addend: 0x0, symName: __ZNSt3__1eqB7v160006INS_9allocatorIcEEEEbRKNS_12basic_stringIcNS_11char_traitsIcEET_EES9_, symObjAddr: 0x14B10, symBinAddr: 0x100026D80, symSize: 0x110 }
  - { offsetInCU: 0x158D0, offset: 0x31F66, size: 0x8, addend: 0x0, symName: __ZNSt3__1eqB7v160006IPP6MethodEEbRKNS_11__wrap_iterIT_EES8_, symObjAddr: 0x14CC0, symBinAddr: 0x100026F30, symSize: 0x40 }
  - { offsetInCU: 0x1879B, offset: 0x34E31, size: 0x8, addend: 0x0, symName: __ZNSt3__16vectorIP5ScopeNS_9allocatorIS2_EEE26__swap_out_circular_bufferERNS_14__split_bufferIS2_RS4_EE, symObjAddr: 0xA390, symBinAddr: 0x10001C9B0, symSize: 0x130 }
  - { offsetInCU: 0x187F2, offset: 0x34E88, size: 0x8, addend: 0x0, symName: __ZNSt3__16vectorIP6MethodNS_9allocatorIS2_EEE26__swap_out_circular_bufferERNS_14__split_bufferIS2_RS4_EE, symObjAddr: 0xBC50, symBinAddr: 0x10001E0F0, symSize: 0x130 }
  - { offsetInCU: 0x18849, offset: 0x34EDF, size: 0x8, addend: 0x0, symName: __ZNSt3__16vectorIP8VariableNS_9allocatorIS2_EEE26__swap_out_circular_bufferERNS_14__split_bufferIS2_RS4_EE, symObjAddr: 0xD010, symBinAddr: 0x10001F4B0, symSize: 0x130 }
  - { offsetInCU: 0x1A56B, offset: 0x36C01, size: 0x8, addend: 0x0, symName: __ZN2yy6parser5errorERKNSt3__112basic_stringIcNS1_11char_traitsIcEENS1_9allocatorIcEEEE, symObjAddr: 0x0, symBinAddr: 0x100013D60, symSize: 0xD0 }
  - { offsetInCU: 0x1A5A1, offset: 0x36C37, size: 0x8, addend: 0x0, symName: __ZNKSt3__112basic_stringIcNS_11char_traitsIcEENS_9allocatorIcEEE5c_strB7v160006Ev, symObjAddr: 0x180, symBinAddr: 0x100013E30, symSize: 0x20 }
  - { offsetInCU: 0x1A5C7, offset: 0x36C5D, size: 0x8, addend: 0x0, symName: _main, symObjAddr: 0x1A0, symBinAddr: 0x100013E50, symSize: 0x240 }
  - { offsetInCU: 0x1A635, offset: 0x36CCB, size: 0x8, addend: 0x0, symName: __ZN4Node10print_treeEi, symObjAddr: 0x3E0, symBinAddr: 0x100014090, symSize: 0x100 }
  - { offsetInCU: 0x1A6A3, offset: 0x36D39, size: 0x8, addend: 0x0, symName: __ZN4Node13generate_treeEv, symObjAddr: 0x4E0, symBinAddr: 0x100014190, symSize: 0x190 }
  - { offsetInCU: 0x1A978, offset: 0x3700E, size: 0x8, addend: 0x0, symName: __ZN11SymbolTableC1Ev, symObjAddr: 0x670, symBinAddr: 0x100014320, symSize: 0x20 }
  - { offsetInCU: 0x1A9A2, offset: 0x37038, size: 0x8, addend: 0x0, symName: __ZN11SymbolTable4mainEP4Node, symObjAddr: 0x690, symBinAddr: 0x100014340, symSize: 0x4D0 }
  - { offsetInCU: 0x1AA77, offset: 0x3710D, size: 0x8, addend: 0x0, symName: __ZN11SymbolTable13generate_treeEv, symObjAddr: 0xB60, symBinAddr: 0x100014810, symSize: 0x180 }
  - { offsetInCU: 0x1AABE, offset: 0x37154, size: 0x8, addend: 0x0, symName: __ZN11SymbolTable18Semantic_TraversalEP4Node, symObjAddr: 0xCE0, symBinAddr: 0x100014990, symSize: 0x30 }
  - { offsetInCU: 0x1AAF3, offset: 0x37189, size: 0x8, addend: 0x0, symName: __ZNSt3__14listIP4NodeNS_9allocatorIS2_EEE5beginB7v160006Ev, symObjAddr: 0xD60, symBinAddr: 0x1000149C0, symSize: 0x30 }
  - { offsetInCU: 0x1AB19, offset: 0x371AF, size: 0x8, addend: 0x0, symName: __ZNSt3__14listIP4NodeNS_9allocatorIS2_EEE3endB7v160006Ev, symObjAddr: 0xDC0, symBinAddr: 0x100014A20, symSize: 0x30 }
  - { offsetInCU: 0x1AB3F, offset: 0x371D5, size: 0x8, addend: 0x0, symName: __ZNKSt3__115__list_iteratorIP4NodePvEdeB7v160006Ev, symObjAddr: 0xDF0, symBinAddr: 0x100014A50, symSize: 0x30 }
  - { offsetInCU: 0x1AB65, offset: 0x371FB, size: 0x8, addend: 0x0, symName: __ZNSt3__115__list_iteratorIP4NodePvEppB7v160006Ei, symObjAddr: 0xE20, symBinAddr: 0x100014A80, symSize: 0x30 }
  - { offsetInCU: 0x1ABCE, offset: 0x37264, size: 0x8, addend: 0x0, symName: __ZNSt3__110__list_impIP4NodeNS_9allocatorIS2_EEE5beginB7v160006Ev, symObjAddr: 0x1930, symBinAddr: 0x100014AB0, symSize: 0x30 }
  - { offsetInCU: 0x1ABF4, offset: 0x3728A, size: 0x8, addend: 0x0, symName: __ZNSt3__115__list_iteratorIP4NodePvEC1B7v160006EPNS_16__list_node_baseIS2_S3_EEPKv, symObjAddr: 0x1960, symBinAddr: 0x100014AE0, symSize: 0x30 }
  - { offsetInCU: 0x1AC3C, offset: 0x372D2, size: 0x8, addend: 0x0, symName: __ZNSt3__115__list_iteratorIP4NodePvEC2B7v160006EPNS_16__list_node_baseIS2_S3_EEPKv, symObjAddr: 0x1990, symBinAddr: 0x100014B10, symSize: 0x20 }
  - { offsetInCU: 0x1AC84, offset: 0x3731A, size: 0x8, addend: 0x0, symName: __ZNSt3__110__list_impIP4NodeNS_9allocatorIS2_EEE3endB7v160006Ev, symObjAddr: 0x19E0, symBinAddr: 0x100014B60, symSize: 0x40 }
  - { offsetInCU: 0x1ACAA, offset: 0x37340, size: 0x8, addend: 0x0, symName: __ZNSt3__116__list_node_baseIP4NodePvE9__as_nodeB7v160006Ev, symObjAddr: 0x1AB0, symBinAddr: 0x100014BA0, symSize: 0x20 }
  - { offsetInCU: 0x1ACD0, offset: 0x37366, size: 0x8, addend: 0x0, symName: __ZNSt3__115__list_iteratorIP4NodePvEppB7v160006Ev, symObjAddr: 0x1AD0, symBinAddr: 0x100014BC0, symSize: 0x20 }
  - { offsetInCU: 0x1ACF6, offset: 0x3738C, size: 0x8, addend: 0x0, symName: __ZNSt3__114basic_ofstreamIcNS_11char_traitsIcEEEC1Ev, symObjAddr: 0x1AF0, symBinAddr: 0x100014BE0, symSize: 0xE0 }
  - { offsetInCU: 0x1AD22, offset: 0x373B8, size: 0x8, addend: 0x0, symName: __ZN4Node21generate_tree_contentERiPNSt3__114basic_ofstreamIcNS1_11char_traitsIcEEEE, symObjAddr: 0x1BD0, symBinAddr: 0x100014CC0, symSize: 0x230 }
  - { offsetInCU: 0x1AD81, offset: 0x37417, size: 0x8, addend: 0x0, symName: __ZNSt3__114basic_ofstreamIcNS_11char_traitsIcEEE5closeEv, symObjAddr: 0x1E00, symBinAddr: 0x100014EF0, symSize: 0x50 }
  - { offsetInCU: 0x1ADAE, offset: 0x37444, size: 0x8, addend: 0x0, symName: __ZNSt3__114basic_ofstreamIcNS_11char_traitsIcEEED1Ev, symObjAddr: 0x1E50, symBinAddr: 0x100014F40, symSize: 0x40 }
  - { offsetInCU: 0x1ADDB, offset: 0x37471, size: 0x8, addend: 0x0, symName: __ZNSt3__19basic_iosIcNS_11char_traitsIcEEEC2B7v160006Ev, symObjAddr: 0x1E90, symBinAddr: 0x100014F80, symSize: 0x40 }
  - { offsetInCU: 0x1AE05, offset: 0x3749B, size: 0x8, addend: 0x0, symName: __ZNSt3__113basic_ostreamIcNS_11char_traitsIcEEEC2B7v160006EPNS_15basic_streambufIcS2_EE, symObjAddr: 0x1ED0, symBinAddr: 0x100014FC0, symSize: 0x50 }
  - { offsetInCU: 0x1AE4A, offset: 0x374E0, size: 0x8, addend: 0x0, symName: __ZNSt3__18ios_baseC2B7v160006Ev, symObjAddr: 0x1F20, symBinAddr: 0x100015010, symSize: 0x20 }
  - { offsetInCU: 0x1AE74, offset: 0x3750A, size: 0x8, addend: 0x0, symName: __ZNSt3__19basic_iosIcNS_11char_traitsIcEEE4initB7v160006EPNS_15basic_streambufIcS2_EE, symObjAddr: 0x1F40, symBinAddr: 0x100015030, symSize: 0x50 }
  - { offsetInCU: 0x1AEAB, offset: 0x37541, size: 0x8, addend: 0x0, symName: __ZNSt3__114basic_ofstreamIcNS_11char_traitsIcEEED2Ev, symObjAddr: 0x20A0, symBinAddr: 0x100015140, symSize: 0x60 }
  - { offsetInCU: 0x1AEE5, offset: 0x3757B, size: 0x8, addend: 0x0, symName: __ZTv0_n24_NSt3__114basic_ofstreamIcNS_11char_traitsIcEEED1Ev, symObjAddr: 0x2100, symBinAddr: 0x1000151A0, symSize: 0x20 }
  - { offsetInCU: 0x1AEFC, offset: 0x37592, size: 0x8, addend: 0x0, symName: __ZN11SymbolTableC2Ev, symObjAddr: 0x2120, symBinAddr: 0x1000151C0, symSize: 0x160 }
  - { offsetInCU: 0x1AF2B, offset: 0x375C1, size: 0x8, addend: 0x0, symName: __ZN5ScopeC1EiNSt3__112basic_stringIcNS0_11char_traitsIcEENS0_9allocatorIcEEEES6_S6_, symObjAddr: 0x22B0, symBinAddr: 0x100015320, symSize: 0x30 }
  - { offsetInCU: 0x1AF90, offset: 0x37626, size: 0x8, addend: 0x0, symName: __ZN5ScopeC2EiNSt3__112basic_stringIcNS0_11char_traitsIcEENS0_9allocatorIcEEEES6_S6_, symObjAddr: 0x2340, symBinAddr: 0x100015350, symSize: 0x170 }
  - { offsetInCU: 0x1AFF5, offset: 0x3768B, size: 0x8, addend: 0x0, symName: __ZNSt3__16vectorIP5ScopeNS_9allocatorIS2_EEEC1B7v160006Ev, symObjAddr: 0x24B0, symBinAddr: 0x1000154C0, symSize: 0x20 }
  - { offsetInCU: 0x1B01F, offset: 0x376B5, size: 0x8, addend: 0x0, symName: __ZNSt3__13mapINS_12basic_stringIcNS_11char_traitsIcEENS_9allocatorIcEEEEP5ClassNS_4lessIS6_EENS4_INS_4pairIKS6_S8_EEEEEC1B7v160006Ev, symObjAddr: 0x24D0, symBinAddr: 0x1000154E0, symSize: 0x20 }
  - { offsetInCU: 0x1B049, offset: 0x376DF, size: 0x8, addend: 0x0, symName: __ZNSt3__13mapINS_12basic_stringIcNS_11char_traitsIcEENS_9allocatorIcEEEEP6MethodNS_4lessIS6_EENS4_INS_4pairIKS6_S8_EEEEEC1B7v160006Ev, symObjAddr: 0x24F0, symBinAddr: 0x100015500, symSize: 0x20 }
  - { offsetInCU: 0x1B073, offset: 0x37709, size: 0x8, addend: 0x0, symName: __ZNSt3__13mapINS_12basic_stringIcNS_11char_traitsIcEENS_9allocatorIcEEEEP8VariableNS_4lessIS6_EENS4_INS_4pairIKS6_S8_EEEEEC1B7v160006Ev, symObjAddr: 0x2510, symBinAddr: 0x100015520, symSize: 0x20 }
  - { offsetInCU: 0x1B09D, offset: 0x37733, size: 0x8, addend: 0x0, symName: __ZNSt3__13mapINS_12basic_stringIcNS_11char_traitsIcEENS_9allocatorIcEEEEP8VariableNS_4lessIS6_EENS4_INS_4pairIKS6_S8_EEEEED1B7v160006Ev, symObjAddr: 0x2530, symBinAddr: 0x100015540, symSize: 0x20 }
  - { offsetInCU: 0x1B0C7, offset: 0x3775D, size: 0x8, addend: 0x0, symName: __ZNSt3__13mapINS_12basic_stringIcNS_11char_traitsIcEENS_9allocatorIcEEEEP6MethodNS_4lessIS6_EENS4_INS_4pairIKS6_S8_EEEEED1B7v160006Ev, symObjAddr: 0x2550, symBinAddr: 0x100015560, symSize: 0x20 }
  - { offsetInCU: 0x1B0F1, offset: 0x37787, size: 0x8, addend: 0x0, symName: __ZNSt3__13mapINS_12basic_stringIcNS_11char_traitsIcEENS_9allocatorIcEEEEP5ClassNS_4lessIS6_EENS4_INS_4pairIKS6_S8_EEEEED1B7v160006Ev, symObjAddr: 0x2570, symBinAddr: 0x100015580, symSize: 0x20 }
  - { offsetInCU: 0x1B11B, offset: 0x377B1, size: 0x8, addend: 0x0, symName: __ZNSt3__16vectorIP5ScopeNS_9allocatorIS2_EEED1B7v160006Ev, symObjAddr: 0x2590, symBinAddr: 0x1000155A0, symSize: 0x20 }
  - { offsetInCU: 0x1B145, offset: 0x377DB, size: 0x8, addend: 0x0, symName: __ZNSt3__16vectorIP5ScopeNS_9allocatorIS2_EEEC2B7v160006Ev, symObjAddr: 0x25B0, symBinAddr: 0x1000155C0, symSize: 0x60 }
  - { offsetInCU: 0x1B174, offset: 0x3780A, size: 0x8, addend: 0x0, symName: __ZNSt3__117__compressed_pairIPP5ScopeNS_9allocatorIS2_EEEC1B7v160006IDnNS_18__default_init_tagEEEOT_OT0_, symObjAddr: 0x2610, symBinAddr: 0x100015620, symSize: 0x30 }
  - { offsetInCU: 0x1B1CC, offset: 0x37862, size: 0x8, addend: 0x0, symName: __ZNSt3__117__compressed_pairIPP5ScopeNS_9allocatorIS2_EEEC2B7v160006IDnNS_18__default_init_tagEEEOT_OT0_, symObjAddr: 0x2650, symBinAddr: 0x100015660, symSize: 0x40 }
  - { offsetInCU: 0x1B224, offset: 0x378BA, size: 0x8, addend: 0x0, symName: __ZNSt3__122__compressed_pair_elemIPP5ScopeLi0ELb0EEC2B7v160006IDnvEEOT_, symObjAddr: 0x2690, symBinAddr: 0x1000156A0, symSize: 0x20 }
  - { offsetInCU: 0x1B266, offset: 0x378FC, size: 0x8, addend: 0x0, symName: __ZNSt3__122__compressed_pair_elemINS_9allocatorIP5ScopeEELi1ELb1EEC2B7v160006ENS_18__default_init_tagE, symObjAddr: 0x26B0, symBinAddr: 0x1000156C0, symSize: 0x20 }
  - { offsetInCU: 0x1B29B, offset: 0x37931, size: 0x8, addend: 0x0, symName: __ZNSt3__19allocatorIP5ScopeEC2B7v160006Ev, symObjAddr: 0x26D0, symBinAddr: 0x1000156E0, symSize: 0x20 }
  - { offsetInCU: 0x1B2C5, offset: 0x3795B, size: 0x8, addend: 0x0, symName: __ZNSt3__116__non_trivial_ifILb1ENS_9allocatorIP5ScopeEEEC2B7v160006Ev, symObjAddr: 0x26F0, symBinAddr: 0x100015700, symSize: 0x10 }
  - { offsetInCU: 0x1B2EF, offset: 0x37985, size: 0x8, addend: 0x0, symName: __ZNSt3__13mapINS_12basic_stringIcNS_11char_traitsIcEENS_9allocatorIcEEEEP5ClassNS_4lessIS6_EENS4_INS_4pairIKS6_S8_EEEEEC2B7v160006Ev, symObjAddr: 0x2700, symBinAddr: 0x100015710, symSize: 0x30 }
  - { offsetInCU: 0x1B319, offset: 0x379AF, size: 0x8, addend: 0x0, symName: __ZNSt3__119__map_value_compareINS_12basic_stringIcNS_11char_traitsIcEENS_9allocatorIcEEEENS_12__value_typeIS6_P5ClassEENS_4lessIS6_EELb1EEC1B7v160006ESC_, symObjAddr: 0x2730, symBinAddr: 0x100015740, symSize: 0x20 }
  - { offsetInCU: 0x1B352, offset: 0x379E8, size: 0x8, addend: 0x0, symName: __ZNSt3__16__treeINS_12__value_typeINS_12basic_stringIcNS_11char_traitsIcEENS_9allocatorIcEEEEP5ClassEENS_19__map_value_compareIS7_SA_NS_4lessIS7_EELb1EEENS5_ISA_EEEC1ERKSE_, symObjAddr: 0x2750, symBinAddr: 0x100015760, symSize: 0x30 }
  - { offsetInCU: 0x1B38D, offset: 0x37A23, size: 0x8, addend: 0x0, symName: __ZNSt3__119__map_value_compareINS_12basic_stringIcNS_11char_traitsIcEENS_9allocatorIcEEEENS_12__value_typeIS6_P5ClassEENS_4lessIS6_EELb1EEC2B7v160006ESC_, symObjAddr: 0x2780, symBinAddr: 0x100015790, symSize: 0x10 }
  - { offsetInCU: 0x1B3C6, offset: 0x37A5C, size: 0x8, addend: 0x0, symName: __ZNSt3__16__treeINS_12__value_typeINS_12basic_stringIcNS_11char_traitsIcEENS_9allocatorIcEEEEP5ClassEENS_19__map_value_compareIS7_SA_NS_4lessIS7_EELb1EEENS5_ISA_EEEC2ERKSE_, symObjAddr: 0x2790, symBinAddr: 0x1000157A0, symSize: 0x80 }
  - { offsetInCU: 0x1B401, offset: 0x37A97, size: 0x8, addend: 0x0, symName: __ZNSt3__117__compressed_pairINS_15__tree_end_nodeIPNS_16__tree_node_baseIPvEEEENS_9allocatorINS_11__tree_nodeINS_12__value_typeINS_12basic_stringIcNS_11char_traitsIcEENS7_IcEEEEP5ClassEES3_EEEEEC1B7v160006ILb1EvEEv, symObjAddr: 0x2810, symBinAddr: 0x100015820, symSize: 0x20 }
  - { offsetInCU: 0x1B43B, offset: 0x37AD1, size: 0x8, addend: 0x0, symName: __ZNSt3__117__compressed_pairImNS_19__map_value_compareINS_12basic_stringIcNS_11char_traitsIcEENS_9allocatorIcEEEENS_12__value_typeIS7_P5ClassEENS_4lessIS7_EELb1EEEEC1B7v160006IiRKSE_EEOT_OT0_, symObjAddr: 0x2830, symBinAddr: 0x100015840, symSize: 0x30 }
  - { offsetInCU: 0x1B493, offset: 0x37B29, size: 0x8, addend: 0x0, symName: __ZNSt3__16__treeINS_12__value_typeINS_12basic_stringIcNS_11char_traitsIcEENS_9allocatorIcEEEEP5ClassEENS_19__map_value_compareIS7_SA_NS_4lessIS7_EELb1EEENS5_ISA_EEE10__end_nodeB7v160006Ev, symObjAddr: 0x2860, symBinAddr: 0x100015870, symSize: 0x30 }
  - { offsetInCU: 0x1B4B9, offset: 0x37B4F, size: 0x8, addend: 0x0, symName: __ZNSt3__16__treeINS_12__value_typeINS_12basic_stringIcNS_11char_traitsIcEENS_9allocatorIcEEEEP5ClassEENS_19__map_value_compareIS7_SA_NS_4lessIS7_EELb1EEENS5_ISA_EEE12__begin_nodeB7v160006Ev, symObjAddr: 0x2890, symBinAddr: 0x1000158A0, symSize: 0x10 }
  - { offsetInCU: 0x1B4DF, offset: 0x37B75, size: 0x8, addend: 0x0, symName: __ZNSt3__117__compressed_pairINS_15__tree_end_nodeIPNS_16__tree_node_baseIPvEEEENS_9allocatorINS_11__tree_nodeINS_12__value_typeINS_12basic_stringIcNS_11char_traitsIcEENS7_IcEEEEP5ClassEES3_EEEEEC2B7v160006ILb1EvEEv, symObjAddr: 0x28A0, symBinAddr: 0x1000158B0, symSize: 0x30 }
  - { offsetInCU: 0x1B514, offset: 0x37BAA, size: 0x8, addend: 0x0, symName: __ZNSt3__122__compressed_pair_elemINS_15__tree_end_nodeIPNS_16__tree_node_baseIPvEEEELi0ELb0EEC2B7v160006ENS_16__value_init_tagE, symObjAddr: 0x28D0, symBinAddr: 0x1000158E0, symSize: 0x20 }
  - { offsetInCU: 0x1B549, offset: 0x37BDF, size: 0x8, addend: 0x0, symName: __ZNSt3__122__compressed_pair_elemINS_9allocatorINS_11__tree_nodeINS_12__value_typeINS_12basic_stringIcNS_11char_traitsIcEENS1_IcEEEEP5ClassEEPvEEEELi1ELb1EEC2B7v160006ENS_16__value_init_tagE, symObjAddr: 0x28F0, symBinAddr: 0x100015900, symSize: 0x20 }
  - { offsetInCU: 0x1B57E, offset: 0x37C14, size: 0x8, addend: 0x0, symName: __ZNSt3__115__tree_end_nodeIPNS_16__tree_node_baseIPvEEEC1B7v160006Ev, symObjAddr: 0x2910, symBinAddr: 0x100015920, symSize: 0x20 }
  - { offsetInCU: 0x1B5A8, offset: 0x37C3E, size: 0x8, addend: 0x0, symName: __ZNSt3__115__tree_end_nodeIPNS_16__tree_node_baseIPvEEEC2B7v160006Ev, symObjAddr: 0x2930, symBinAddr: 0x100015940, symSize: 0x20 }
  - { offsetInCU: 0x1B5D2, offset: 0x37C68, size: 0x8, addend: 0x0, symName: __ZNSt3__19allocatorINS_11__tree_nodeINS_12__value_typeINS_12basic_stringIcNS_11char_traitsIcEENS0_IcEEEEP5ClassEEPvEEEC2B7v160006Ev, symObjAddr: 0x2950, symBinAddr: 0x100015960, symSize: 0x20 }
  - { offsetInCU: 0x1B5FC, offset: 0x37C92, size: 0x8, addend: 0x0, symName: __ZNSt3__116__non_trivial_ifILb1ENS_9allocatorINS_11__tree_nodeINS_12__value_typeINS_12basic_stringIcNS_11char_traitsIcEENS1_IcEEEEP5ClassEEPvEEEEEC2B7v160006Ev, symObjAddr: 0x2970, symBinAddr: 0x100015980, symSize: 0x10 }
  - { offsetInCU: 0x1B626, offset: 0x37CBC, size: 0x8, addend: 0x0, symName: __ZNSt3__117__compressed_pairImNS_19__map_value_compareINS_12basic_stringIcNS_11char_traitsIcEENS_9allocatorIcEEEENS_12__value_typeIS7_P5ClassEENS_4lessIS7_EELb1EEEEC2B7v160006IiRKSE_EEOT_OT0_, symObjAddr: 0x2980, symBinAddr: 0x100015990, symSize: 0x40 }
  - { offsetInCU: 0x1B67E, offset: 0x37D14, size: 0x8, addend: 0x0, symName: __ZNSt3__122__compressed_pair_elemINS_19__map_value_compareINS_12basic_stringIcNS_11char_traitsIcEENS_9allocatorIcEEEENS_12__value_typeIS7_P5ClassEENS_4lessIS7_EELb1EEELi1ELb1EEC2B7v160006IRKSE_vEEOT_, symObjAddr: 0x29E0, symBinAddr: 0x1000159D0, symSize: 0x10 }
  - { offsetInCU: 0x1B6C0, offset: 0x37D56, size: 0x8, addend: 0x0, symName: __ZNSt3__114pointer_traitsIPNS_15__tree_end_nodeIPNS_16__tree_node_baseIPvEEEEE10pointer_toB7v160006ERS6_, symObjAddr: 0x29F0, symBinAddr: 0x1000159E0, symSize: 0x10 }
  - { offsetInCU: 0x1B6E3, offset: 0x37D79, size: 0x8, addend: 0x0, symName: __ZNSt3__117__compressed_pairINS_15__tree_end_nodeIPNS_16__tree_node_baseIPvEEEENS_9allocatorINS_11__tree_nodeINS_12__value_typeINS_12basic_stringIcNS_11char_traitsIcEENS7_IcEEEEP5ClassEES3_EEEEE5firstB7v160006Ev, symObjAddr: 0x2A00, symBinAddr: 0x1000159F0, symSize: 0x20 }
  - { offsetInCU: 0x1B709, offset: 0x37D9F, size: 0x8, addend: 0x0, symName: __ZNSt3__122__compressed_pair_elemINS_15__tree_end_nodeIPNS_16__tree_node_baseIPvEEEELi0ELb0EE5__getB7v160006Ev, symObjAddr: 0x2A20, symBinAddr: 0x100015A10, symSize: 0x10 }
  - { offsetInCU: 0x1B72F, offset: 0x37DC5, size: 0x8, addend: 0x0, symName: __ZNSt3__13mapINS_12basic_stringIcNS_11char_traitsIcEENS_9allocatorIcEEEEP6MethodNS_4lessIS6_EENS4_INS_4pairIKS6_S8_EEEEEC2B7v160006Ev, symObjAddr: 0x2A30, symBinAddr: 0x100015A20, symSize: 0x30 }
  - { offsetInCU: 0x1B759, offset: 0x37DEF, size: 0x8, addend: 0x0, symName: __ZNSt3__119__map_value_compareINS_12basic_stringIcNS_11char_traitsIcEENS_9allocatorIcEEEENS_12__value_typeIS6_P6MethodEENS_4lessIS6_EELb1EEC1B7v160006ESC_, symObjAddr: 0x2A60, symBinAddr: 0x100015A50, symSize: 0x20 }
  - { offsetInCU: 0x1B792, offset: 0x37E28, size: 0x8, addend: 0x0, symName: __ZNSt3__16__treeINS_12__value_typeINS_12basic_stringIcNS_11char_traitsIcEENS_9allocatorIcEEEEP6MethodEENS_19__map_value_compareIS7_SA_NS_4lessIS7_EELb1EEENS5_ISA_EEEC1ERKSE_, symObjAddr: 0x2A80, symBinAddr: 0x100015A70, symSize: 0x30 }
  - { offsetInCU: 0x1B7CD, offset: 0x37E63, size: 0x8, addend: 0x0, symName: __ZNSt3__119__map_value_compareINS_12basic_stringIcNS_11char_traitsIcEENS_9allocatorIcEEEENS_12__value_typeIS6_P6MethodEENS_4lessIS6_EELb1EEC2B7v160006ESC_, symObjAddr: 0x2AB0, symBinAddr: 0x100015AA0, symSize: 0x10 }
  - { offsetInCU: 0x1B806, offset: 0x37E9C, size: 0x8, addend: 0x0, symName: __ZNSt3__16__treeINS_12__value_typeINS_12basic_stringIcNS_11char_traitsIcEENS_9allocatorIcEEEEP6MethodEENS_19__map_value_compareIS7_SA_NS_4lessIS7_EELb1EEENS5_ISA_EEEC2ERKSE_, symObjAddr: 0x2AC0, symBinAddr: 0x100015AB0, symSize: 0x80 }
  - { offsetInCU: 0x1B841, offset: 0x37ED7, size: 0x8, addend: 0x0, symName: __ZNSt3__117__compressed_pairINS_15__tree_end_nodeIPNS_16__tree_node_baseIPvEEEENS_9allocatorINS_11__tree_nodeINS_12__value_typeINS_12basic_stringIcNS_11char_traitsIcEENS7_IcEEEEP6MethodEES3_EEEEEC1B7v160006ILb1EvEEv, symObjAddr: 0x2B40, symBinAddr: 0x100015B30, symSize: 0x20 }
  - { offsetInCU: 0x1B876, offset: 0x37F0C, size: 0x8, addend: 0x0, symName: __ZNSt3__117__compressed_pairImNS_19__map_value_compareINS_12basic_stringIcNS_11char_traitsIcEENS_9allocatorIcEEEENS_12__value_typeIS7_P6MethodEENS_4lessIS7_EELb1EEEEC1B7v160006IiRKSE_EEOT_OT0_, symObjAddr: 0x2B60, symBinAddr: 0x100015B50, symSize: 0x30 }
  - { offsetInCU: 0x1B8CE, offset: 0x37F64, size: 0x8, addend: 0x0, symName: __ZNSt3__16__treeINS_12__value_typeINS_12basic_stringIcNS_11char_traitsIcEENS_9allocatorIcEEEEP6MethodEENS_19__map_value_compareIS7_SA_NS_4lessIS7_EELb1EEENS5_ISA_EEE10__end_nodeB7v160006Ev, symObjAddr: 0x2B90, symBinAddr: 0x100015B80, symSize: 0x30 }
  - { offsetInCU: 0x1B8F4, offset: 0x37F8A, size: 0x8, addend: 0x0, symName: __ZNSt3__16__treeINS_12__value_typeINS_12basic_stringIcNS_11char_traitsIcEENS_9allocatorIcEEEEP6MethodEENS_19__map_value_compareIS7_SA_NS_4lessIS7_EELb1EEENS5_ISA_EEE12__begin_nodeB7v160006Ev, symObjAddr: 0x2BC0, symBinAddr: 0x100015BB0, symSize: 0x10 }
  - { offsetInCU: 0x1B91A, offset: 0x37FB0, size: 0x8, addend: 0x0, symName: __ZNSt3__117__compressed_pairINS_15__tree_end_nodeIPNS_16__tree_node_baseIPvEEEENS_9allocatorINS_11__tree_nodeINS_12__value_typeINS_12basic_stringIcNS_11char_traitsIcEENS7_IcEEEEP6MethodEES3_EEEEEC2B7v160006ILb1EvEEv, symObjAddr: 0x2BD0, symBinAddr: 0x100015BC0, symSize: 0x30 }
  - { offsetInCU: 0x1B94F, offset: 0x37FE5, size: 0x8, addend: 0x0, symName: __ZNSt3__122__compressed_pair_elemINS_9allocatorINS_11__tree_nodeINS_12__value_typeINS_12basic_stringIcNS_11char_traitsIcEENS1_IcEEEEP6MethodEEPvEEEELi1ELb1EEC2B7v160006ENS_16__value_init_tagE, symObjAddr: 0x2C00, symBinAddr: 0x100015BF0, symSize: 0x20 }
  - { offsetInCU: 0x1B984, offset: 0x3801A, size: 0x8, addend: 0x0, symName: __ZNSt3__19allocatorINS_11__tree_nodeINS_12__value_typeINS_12basic_stringIcNS_11char_traitsIcEENS0_IcEEEEP6MethodEEPvEEEC2B7v160006Ev, symObjAddr: 0x2C20, symBinAddr: 0x100015C10, symSize: 0x20 }
  - { offsetInCU: 0x1B9AE, offset: 0x38044, size: 0x8, addend: 0x0, symName: __ZNSt3__116__non_trivial_ifILb1ENS_9allocatorINS_11__tree_nodeINS_12__value_typeINS_12basic_stringIcNS_11char_traitsIcEENS1_IcEEEEP6MethodEEPvEEEEEC2B7v160006Ev, symObjAddr: 0x2C40, symBinAddr: 0x100015C30, symSize: 0x10 }
  - { offsetInCU: 0x1B9D8, offset: 0x3806E, size: 0x8, addend: 0x0, symName: __ZNSt3__117__compressed_pairImNS_19__map_value_compareINS_12basic_stringIcNS_11char_traitsIcEENS_9allocatorIcEEEENS_12__value_typeIS7_P6MethodEENS_4lessIS7_EELb1EEEEC2B7v160006IiRKSE_EEOT_OT0_, symObjAddr: 0x2C50, symBinAddr: 0x100015C40, symSize: 0x40 }
  - { offsetInCU: 0x1BA30, offset: 0x380C6, size: 0x8, addend: 0x0, symName: __ZNSt3__122__compressed_pair_elemINS_19__map_value_compareINS_12basic_stringIcNS_11char_traitsIcEENS_9allocatorIcEEEENS_12__value_typeIS7_P6MethodEENS_4lessIS7_EELb1EEELi1ELb1EEC2B7v160006IRKSE_vEEOT_, symObjAddr: 0x2C90, symBinAddr: 0x100015C80, symSize: 0x10 }
  - { offsetInCU: 0x1BA72, offset: 0x38108, size: 0x8, addend: 0x0, symName: __ZNSt3__117__compressed_pairINS_15__tree_end_nodeIPNS_16__tree_node_baseIPvEEEENS_9allocatorINS_11__tree_nodeINS_12__value_typeINS_12basic_stringIcNS_11char_traitsIcEENS7_IcEEEEP6MethodEES3_EEEEE5firstB7v160006Ev, symObjAddr: 0x2CA0, symBinAddr: 0x100015C90, symSize: 0x20 }
  - { offsetInCU: 0x1BA98, offset: 0x3812E, size: 0x8, addend: 0x0, symName: __ZNSt3__13mapINS_12basic_stringIcNS_11char_traitsIcEENS_9allocatorIcEEEEP8VariableNS_4lessIS6_EENS4_INS_4pairIKS6_S8_EEEEEC2B7v160006Ev, symObjAddr: 0x2CC0, symBinAddr: 0x100015CB0, symSize: 0x30 }
  - { offsetInCU: 0x1BAC2, offset: 0x38158, size: 0x8, addend: 0x0, symName: __ZNSt3__119__map_value_compareINS_12basic_stringIcNS_11char_traitsIcEENS_9allocatorIcEEEENS_12__value_typeIS6_P8VariableEENS_4lessIS6_EELb1EEC1B7v160006ESC_, symObjAddr: 0x2CF0, symBinAddr: 0x100015CE0, symSize: 0x20 }
  - { offsetInCU: 0x1BAFB, offset: 0x38191, size: 0x8, addend: 0x0, symName: __ZNSt3__16__treeINS_12__value_typeINS_12basic_stringIcNS_11char_traitsIcEENS_9allocatorIcEEEEP8VariableEENS_19__map_value_compareIS7_SA_NS_4lessIS7_EELb1EEENS5_ISA_EEEC1ERKSE_, symObjAddr: 0x2D10, symBinAddr: 0x100015D00, symSize: 0x30 }
  - { offsetInCU: 0x1BB36, offset: 0x381CC, size: 0x8, addend: 0x0, symName: __ZNSt3__119__map_value_compareINS_12basic_stringIcNS_11char_traitsIcEENS_9allocatorIcEEEENS_12__value_typeIS6_P8VariableEENS_4lessIS6_EELb1EEC2B7v160006ESC_, symObjAddr: 0x2D40, symBinAddr: 0x100015D30, symSize: 0x10 }
  - { offsetInCU: 0x1BB6F, offset: 0x38205, size: 0x8, addend: 0x0, symName: __ZNSt3__16__treeINS_12__value_typeINS_12basic_stringIcNS_11char_traitsIcEENS_9allocatorIcEEEEP8VariableEENS_19__map_value_compareIS7_SA_NS_4lessIS7_EELb1EEENS5_ISA_EEEC2ERKSE_, symObjAddr: 0x2D50, symBinAddr: 0x100015D40, symSize: 0x80 }
  - { offsetInCU: 0x1BBAA, offset: 0x38240, size: 0x8, addend: 0x0, symName: __ZNSt3__117__compressed_pairINS_15__tree_end_nodeIPNS_16__tree_node_baseIPvEEEENS_9allocatorINS_11__tree_nodeINS_12__value_typeINS_12basic_stringIcNS_11char_traitsIcEENS7_IcEEEEP8VariableEES3_EEEEEC1B7v160006ILb1EvEEv, symObjAddr: 0x2DD0, symBinAddr: 0x100015DC0, symSize: 0x20 }
  - { offsetInCU: 0x1BBDF, offset: 0x38275, size: 0x8, addend: 0x0, symName: __ZNSt3__117__compressed_pairImNS_19__map_value_compareINS_12basic_stringIcNS_11char_traitsIcEENS_9allocatorIcEEEENS_12__value_typeIS7_P8VariableEENS_4lessIS7_EELb1EEEEC1B7v160006IiRKSE_EEOT_OT0_, symObjAddr: 0x2DF0, symBinAddr: 0x100015DE0, symSize: 0x30 }
  - { offsetInCU: 0x1BC37, offset: 0x382CD, size: 0x8, addend: 0x0, symName: __ZNSt3__16__treeINS_12__value_typeINS_12basic_stringIcNS_11char_traitsIcEENS_9allocatorIcEEEEP8VariableEENS_19__map_value_compareIS7_SA_NS_4lessIS7_EELb1EEENS5_ISA_EEE10__end_nodeB7v160006Ev, symObjAddr: 0x2E20, symBinAddr: 0x100015E10, symSize: 0x30 }
  - { offsetInCU: 0x1BC5D, offset: 0x382F3, size: 0x8, addend: 0x0, symName: __ZNSt3__16__treeINS_12__value_typeINS_12basic_stringIcNS_11char_traitsIcEENS_9allocatorIcEEEEP8VariableEENS_19__map_value_compareIS7_SA_NS_4lessIS7_EELb1EEENS5_ISA_EEE12__begin_nodeB7v160006Ev, symObjAddr: 0x2E50, symBinAddr: 0x100015E40, symSize: 0x10 }
  - { offsetInCU: 0x1BC83, offset: 0x38319, size: 0x8, addend: 0x0, symName: __ZNSt3__117__compressed_pairINS_15__tree_end_nodeIPNS_16__tree_node_baseIPvEEEENS_9allocatorINS_11__tree_nodeINS_12__value_typeINS_12basic_stringIcNS_11char_traitsIcEENS7_IcEEEEP8VariableEES3_EEEEEC2B7v160006ILb1EvEEv, symObjAddr: 0x2E60, symBinAddr: 0x100015E50, symSize: 0x30 }
  - { offsetInCU: 0x1BCB8, offset: 0x3834E, size: 0x8, addend: 0x0, symName: __ZNSt3__122__compressed_pair_elemINS_9allocatorINS_11__tree_nodeINS_12__value_typeINS_12basic_stringIcNS_11char_traitsIcEENS1_IcEEEEP8VariableEEPvEEEELi1ELb1EEC2B7v160006ENS_16__value_init_tagE, symObjAddr: 0x2E90, symBinAddr: 0x100015E80, symSize: 0x20 }
  - { offsetInCU: 0x1BCED, offset: 0x38383, size: 0x8, addend: 0x0, symName: __ZNSt3__19allocatorINS_11__tree_nodeINS_12__value_typeINS_12basic_stringIcNS_11char_traitsIcEENS0_IcEEEEP8VariableEEPvEEEC2B7v160006Ev, symObjAddr: 0x2EB0, symBinAddr: 0x100015EA0, symSize: 0x20 }
  - { offsetInCU: 0x1BD17, offset: 0x383AD, size: 0x8, addend: 0x0, symName: __ZNSt3__116__non_trivial_ifILb1ENS_9allocatorINS_11__tree_nodeINS_12__value_typeINS_12basic_stringIcNS_11char_traitsIcEENS1_IcEEEEP8VariableEEPvEEEEEC2B7v160006Ev, symObjAddr: 0x2ED0, symBinAddr: 0x100015EC0, symSize: 0x10 }
  - { offsetInCU: 0x1BD41, offset: 0x383D7, size: 0x8, addend: 0x0, symName: __ZNSt3__117__compressed_pairImNS_19__map_value_compareINS_12basic_stringIcNS_11char_traitsIcEENS_9allocatorIcEEEENS_12__value_typeIS7_P8VariableEENS_4lessIS7_EELb1EEEEC2B7v160006IiRKSE_EEOT_OT0_, symObjAddr: 0x2EE0, symBinAddr: 0x100015ED0, symSize: 0x40 }
  - { offsetInCU: 0x1BD99, offset: 0x3842F, size: 0x8, addend: 0x0, symName: __ZNSt3__122__compressed_pair_elemINS_19__map_value_compareINS_12basic_stringIcNS_11char_traitsIcEENS_9allocatorIcEEEENS_12__value_typeIS7_P8VariableEENS_4lessIS7_EELb1EEELi1ELb1EEC2B7v160006IRKSE_vEEOT_, symObjAddr: 0x2F20, symBinAddr: 0x100015F10, symSize: 0x10 }
  - { offsetInCU: 0x1BDDB, offset: 0x38471, size: 0x8, addend: 0x0, symName: __ZNSt3__117__compressed_pairINS_15__tree_end_nodeIPNS_16__tree_node_baseIPvEEEENS_9allocatorINS_11__tree_nodeINS_12__value_typeINS_12basic_stringIcNS_11char_traitsIcEENS7_IcEEEEP8VariableEES3_EEEEE5firstB7v160006Ev, symObjAddr: 0x2F30, symBinAddr: 0x100015F20, symSize: 0x20 }
  - { offsetInCU: 0x1BE01, offset: 0x38497, size: 0x8, addend: 0x0, symName: __ZNSt3__13mapINS_12basic_stringIcNS_11char_traitsIcEENS_9allocatorIcEEEEP8VariableNS_4lessIS6_EENS4_INS_4pairIKS6_S8_EEEEED2B7v160006Ev, symObjAddr: 0x2F50, symBinAddr: 0x100015F40, symSize: 0x20 }
  - { offsetInCU: 0x1BE2B, offset: 0x384C1, size: 0x8, addend: 0x0, symName: __ZNSt3__16__treeINS_12__value_typeINS_12basic_stringIcNS_11char_traitsIcEENS_9allocatorIcEEEEP8VariableEENS_19__map_value_compareIS7_SA_NS_4lessIS7_EELb1EEENS5_ISA_EEED1Ev, symObjAddr: 0x2F70, symBinAddr: 0x100015F60, symSize: 0x20 }
  - { offsetInCU: 0x1BE57, offset: 0x384ED, size: 0x8, addend: 0x0, symName: __ZNSt3__16__treeINS_12__value_typeINS_12basic_stringIcNS_11char_traitsIcEENS_9allocatorIcEEEEP8VariableEENS_19__map_value_compareIS7_SA_NS_4lessIS7_EELb1EEENS5_ISA_EEED2Ev, symObjAddr: 0x2F90, symBinAddr: 0x100015F80, symSize: 0x30 }
  - { offsetInCU: 0x1BE83, offset: 0x38519, size: 0x8, addend: 0x0, symName: __ZNSt3__16__treeINS_12__value_typeINS_12basic_stringIcNS_11char_traitsIcEENS_9allocatorIcEEEEP8VariableEENS_19__map_value_compareIS7_SA_NS_4lessIS7_EELb1EEENS5_ISA_EEE7destroyEPNS_11__tree_nodeISA_PvEE, symObjAddr: 0x2FC0, symBinAddr: 0x100015FB0, symSize: 0xB0 }
  - { offsetInCU: 0x1BECF, offset: 0x38565, size: 0x8, addend: 0x0, symName: __ZNKSt3__16__treeINS_12__value_typeINS_12basic_stringIcNS_11char_traitsIcEENS_9allocatorIcEEEEP8VariableEENS_19__map_value_compareIS7_SA_NS_4lessIS7_EELb1EEENS5_ISA_EEE6__rootB7v160006Ev, symObjAddr: 0x3070, symBinAddr: 0x100016060, symSize: 0x20 }
  - { offsetInCU: 0x1BEF5, offset: 0x3858B, size: 0x8, addend: 0x0, symName: __ZNSt3__16__treeINS_12__value_typeINS_12basic_stringIcNS_11char_traitsIcEENS_9allocatorIcEEEEP8VariableEENS_19__map_value_compareIS7_SA_NS_4lessIS7_EELb1EEENS5_ISA_EEE12__node_allocB7v160006Ev, symObjAddr: 0x3090, symBinAddr: 0x100016080, symSize: 0x20 }
  - { offsetInCU: 0x1BF1B, offset: 0x385B1, size: 0x8, addend: 0x0, symName: __ZNSt3__116allocator_traitsINS_9allocatorINS_11__tree_nodeINS_12__value_typeINS_12basic_stringIcNS_11char_traitsIcEENS1_IcEEEEP8VariableEEPvEEEEE7destroyB7v160006INS_4pairIKS8_SA_EEvvEEvRSE_PT_, symObjAddr: 0x30B0, symBinAddr: 0x1000160A0, symSize: 0x20 }
  - { offsetInCU: 0x1BF56, offset: 0x385EC, size: 0x8, addend: 0x0, symName: __ZNSt3__122__tree_key_value_typesINS_12__value_typeINS_12basic_stringIcNS_11char_traitsIcEENS_9allocatorIcEEEEP8VariableEEE9__get_ptrB7v160006ERSA_, symObjAddr: 0x30D0, symBinAddr: 0x1000160C0, symSize: 0x20 }
  - { offsetInCU: 0x1BF7A, offset: 0x38610, size: 0x8, addend: 0x0, symName: __ZNSt3__116allocator_traitsINS_9allocatorINS_11__tree_nodeINS_12__value_typeINS_12basic_stringIcNS_11char_traitsIcEENS1_IcEEEEP8VariableEEPvEEEEE10deallocateB7v160006ERSE_PSD_m, symObjAddr: 0x30F0, symBinAddr: 0x1000160E0, symSize: 0x30 }
  - { offsetInCU: 0x1BFBC, offset: 0x38652, size: 0x8, addend: 0x0, symName: __ZNSt3__117__compressed_pairINS_15__tree_end_nodeIPNS_16__tree_node_baseIPvEEEENS_9allocatorINS_11__tree_nodeINS_12__value_typeINS_12basic_stringIcNS_11char_traitsIcEENS7_IcEEEEP8VariableEES3_EEEEE6secondB7v160006Ev, symObjAddr: 0x3120, symBinAddr: 0x100016110, symSize: 0x20 }
  - { offsetInCU: 0x1BFE2, offset: 0x38678, size: 0x8, addend: 0x0, symName: __ZNSt3__122__compressed_pair_elemINS_9allocatorINS_11__tree_nodeINS_12__value_typeINS_12basic_stringIcNS_11char_traitsIcEENS1_IcEEEEP8VariableEEPvEEEELi1ELb1EE5__getB7v160006Ev, symObjAddr: 0x3140, symBinAddr: 0x100016130, symSize: 0x10 }
  - { offsetInCU: 0x1C008, offset: 0x3869E, size: 0x8, addend: 0x0, symName: __ZNSt3__14pairIKNS_12basic_stringIcNS_11char_traitsIcEENS_9allocatorIcEEEEP8VariableED1Ev, symObjAddr: 0x3150, symBinAddr: 0x100016140, symSize: 0x20 }
  - { offsetInCU: 0x1C034, offset: 0x386CA, size: 0x8, addend: 0x0, symName: __ZNSt3__14pairIKNS_12basic_stringIcNS_11char_traitsIcEENS_9allocatorIcEEEEP8VariableED2Ev, symObjAddr: 0x3170, symBinAddr: 0x100016160, symSize: 0x20 }
  - { offsetInCU: 0x1C060, offset: 0x386F6, size: 0x8, addend: 0x0, symName: __ZNSt3__112__value_typeINS_12basic_stringIcNS_11char_traitsIcEENS_9allocatorIcEEEEP8VariableE11__get_valueB7v160006Ev, symObjAddr: 0x3190, symBinAddr: 0x100016180, symSize: 0x10 }
  - { offsetInCU: 0x1C086, offset: 0x3871C, size: 0x8, addend: 0x0, symName: __ZNSt3__19allocatorINS_11__tree_nodeINS_12__value_typeINS_12basic_stringIcNS_11char_traitsIcEENS0_IcEEEEP8VariableEEPvEEE10deallocateB7v160006EPSC_m, symObjAddr: 0x31A0, symBinAddr: 0x100016190, symSize: 0x40 }
  - { offsetInCU: 0x1C0C8, offset: 0x3875E, size: 0x8, addend: 0x0, symName: __ZNKSt3__16__treeINS_12__value_typeINS_12basic_stringIcNS_11char_traitsIcEENS_9allocatorIcEEEEP8VariableEENS_19__map_value_compareIS7_SA_NS_4lessIS7_EELb1EEENS5_ISA_EEE10__end_nodeB7v160006Ev, symObjAddr: 0x3250, symBinAddr: 0x1000161D0, symSize: 0x30 }
  - { offsetInCU: 0x1C0EE, offset: 0x38784, size: 0x8, addend: 0x0, symName: __ZNKSt3__117__compressed_pairINS_15__tree_end_nodeIPNS_16__tree_node_baseIPvEEEENS_9allocatorINS_11__tree_nodeINS_12__value_typeINS_12basic_stringIcNS_11char_traitsIcEENS7_IcEEEEP8VariableEES3_EEEEE5firstB7v160006Ev, symObjAddr: 0x3280, symBinAddr: 0x100016200, symSize: 0x20 }
  - { offsetInCU: 0x1C114, offset: 0x387AA, size: 0x8, addend: 0x0, symName: __ZNKSt3__122__compressed_pair_elemINS_15__tree_end_nodeIPNS_16__tree_node_baseIPvEEEELi0ELb0EE5__getB7v160006Ev, symObjAddr: 0x32A0, symBinAddr: 0x100016220, symSize: 0x10 }
  - { offsetInCU: 0x1C13A, offset: 0x387D0, size: 0x8, addend: 0x0, symName: __ZNSt3__13mapINS_12basic_stringIcNS_11char_traitsIcEENS_9allocatorIcEEEEP6MethodNS_4lessIS6_EENS4_INS_4pairIKS6_S8_EEEEED2B7v160006Ev, symObjAddr: 0x32B0, symBinAddr: 0x100016230, symSize: 0x20 }
  - { offsetInCU: 0x1C164, offset: 0x387FA, size: 0x8, addend: 0x0, symName: __ZNSt3__16__treeINS_12__value_typeINS_12basic_stringIcNS_11char_traitsIcEENS_9allocatorIcEEEEP6MethodEENS_19__map_value_compareIS7_SA_NS_4lessIS7_EELb1EEENS5_ISA_EEED1Ev, symObjAddr: 0x32D0, symBinAddr: 0x100016250, symSize: 0x20 }
  - { offsetInCU: 0x1C190, offset: 0x38826, size: 0x8, addend: 0x0, symName: __ZNSt3__16__treeINS_12__value_typeINS_12basic_stringIcNS_11char_traitsIcEENS_9allocatorIcEEEEP6MethodEENS_19__map_value_compareIS7_SA_NS_4lessIS7_EELb1EEENS5_ISA_EEED2Ev, symObjAddr: 0x32F0, symBinAddr: 0x100016270, symSize: 0x30 }
  - { offsetInCU: 0x1C1BC, offset: 0x38852, size: 0x8, addend: 0x0, symName: __ZNSt3__16__treeINS_12__value_typeINS_12basic_stringIcNS_11char_traitsIcEENS_9allocatorIcEEEEP6MethodEENS_19__map_value_compareIS7_SA_NS_4lessIS7_EELb1EEENS5_ISA_EEE7destroyEPNS_11__tree_nodeISA_PvEE, symObjAddr: 0x3320, symBinAddr: 0x1000162A0, symSize: 0xB0 }
  - { offsetInCU: 0x1C208, offset: 0x3889E, size: 0x8, addend: 0x0, symName: __ZNKSt3__16__treeINS_12__value_typeINS_12basic_stringIcNS_11char_traitsIcEENS_9allocatorIcEEEEP6MethodEENS_19__map_value_compareIS7_SA_NS_4lessIS7_EELb1EEENS5_ISA_EEE6__rootB7v160006Ev, symObjAddr: 0x33D0, symBinAddr: 0x100016350, symSize: 0x20 }
  - { offsetInCU: 0x1C22E, offset: 0x388C4, size: 0x8, addend: 0x0, symName: __ZNSt3__16__treeINS_12__value_typeINS_12basic_stringIcNS_11char_traitsIcEENS_9allocatorIcEEEEP6MethodEENS_19__map_value_compareIS7_SA_NS_4lessIS7_EELb1EEENS5_ISA_EEE12__node_allocB7v160006Ev, symObjAddr: 0x33F0, symBinAddr: 0x100016370, symSize: 0x20 }
  - { offsetInCU: 0x1C254, offset: 0x388EA, size: 0x8, addend: 0x0, symName: __ZNSt3__116allocator_traitsINS_9allocatorINS_11__tree_nodeINS_12__value_typeINS_12basic_stringIcNS_11char_traitsIcEENS1_IcEEEEP6MethodEEPvEEEEE7destroyB7v160006INS_4pairIKS8_SA_EEvvEEvRSE_PT_, symObjAddr: 0x3410, symBinAddr: 0x100016390, symSize: 0x20 }
  - { offsetInCU: 0x1C28F, offset: 0x38925, size: 0x8, addend: 0x0, symName: __ZNSt3__122__tree_key_value_typesINS_12__value_typeINS_12basic_stringIcNS_11char_traitsIcEENS_9allocatorIcEEEEP6MethodEEE9__get_ptrB7v160006ERSA_, symObjAddr: 0x3430, symBinAddr: 0x1000163B0, symSize: 0x20 }
  - { offsetInCU: 0x1C2B3, offset: 0x38949, size: 0x8, addend: 0x0, symName: __ZNSt3__116allocator_traitsINS_9allocatorINS_11__tree_nodeINS_12__value_typeINS_12basic_stringIcNS_11char_traitsIcEENS1_IcEEEEP6MethodEEPvEEEEE10deallocateB7v160006ERSE_PSD_m, symObjAddr: 0x3450, symBinAddr: 0x1000163D0, symSize: 0x30 }
  - { offsetInCU: 0x1C2F5, offset: 0x3898B, size: 0x8, addend: 0x0, symName: __ZNSt3__117__compressed_pairINS_15__tree_end_nodeIPNS_16__tree_node_baseIPvEEEENS_9allocatorINS_11__tree_nodeINS_12__value_typeINS_12basic_stringIcNS_11char_traitsIcEENS7_IcEEEEP6MethodEES3_EEEEE6secondB7v160006Ev, symObjAddr: 0x3480, symBinAddr: 0x100016400, symSize: 0x20 }
  - { offsetInCU: 0x1C31B, offset: 0x389B1, size: 0x8, addend: 0x0, symName: __ZNSt3__122__compressed_pair_elemINS_9allocatorINS_11__tree_nodeINS_12__value_typeINS_12basic_stringIcNS_11char_traitsIcEENS1_IcEEEEP6MethodEEPvEEEELi1ELb1EE5__getB7v160006Ev, symObjAddr: 0x34A0, symBinAddr: 0x100016420, symSize: 0x10 }
  - { offsetInCU: 0x1C341, offset: 0x389D7, size: 0x8, addend: 0x0, symName: __ZNSt3__14pairIKNS_12basic_stringIcNS_11char_traitsIcEENS_9allocatorIcEEEEP6MethodED1Ev, symObjAddr: 0x34B0, symBinAddr: 0x100016430, symSize: 0x20 }
  - { offsetInCU: 0x1C36D, offset: 0x38A03, size: 0x8, addend: 0x0, symName: __ZNSt3__14pairIKNS_12basic_stringIcNS_11char_traitsIcEENS_9allocatorIcEEEEP6MethodED2Ev, symObjAddr: 0x34D0, symBinAddr: 0x100016450, symSize: 0x20 }
  - { offsetInCU: 0x1C399, offset: 0x38A2F, size: 0x8, addend: 0x0, symName: __ZNSt3__112__value_typeINS_12basic_stringIcNS_11char_traitsIcEENS_9allocatorIcEEEEP6MethodE11__get_valueB7v160006Ev, symObjAddr: 0x34F0, symBinAddr: 0x100016470, symSize: 0x10 }
  - { offsetInCU: 0x1C3BF, offset: 0x38A55, size: 0x8, addend: 0x0, symName: __ZNSt3__19allocatorINS_11__tree_nodeINS_12__value_typeINS_12basic_stringIcNS_11char_traitsIcEENS0_IcEEEEP6MethodEEPvEEE10deallocateB7v160006EPSC_m, symObjAddr: 0x3500, symBinAddr: 0x100016480, symSize: 0x40 }
  - { offsetInCU: 0x1C401, offset: 0x38A97, size: 0x8, addend: 0x0, symName: __ZNKSt3__16__treeINS_12__value_typeINS_12basic_stringIcNS_11char_traitsIcEENS_9allocatorIcEEEEP6MethodEENS_19__map_value_compareIS7_SA_NS_4lessIS7_EELb1EEENS5_ISA_EEE10__end_nodeB7v160006Ev, symObjAddr: 0x3540, symBinAddr: 0x1000164C0, symSize: 0x30 }
  - { offsetInCU: 0x1C427, offset: 0x38ABD, size: 0x8, addend: 0x0, symName: __ZNKSt3__117__compressed_pairINS_15__tree_end_nodeIPNS_16__tree_node_baseIPvEEEENS_9allocatorINS_11__tree_nodeINS_12__value_typeINS_12basic_stringIcNS_11char_traitsIcEENS7_IcEEEEP6MethodEES3_EEEEE5firstB7v160006Ev, symObjAddr: 0x3570, symBinAddr: 0x1000164F0, symSize: 0x20 }
  - { offsetInCU: 0x1C44D, offset: 0x38AE3, size: 0x8, addend: 0x0, symName: __ZNSt3__13mapINS_12basic_stringIcNS_11char_traitsIcEENS_9allocatorIcEEEEP5ClassNS_4lessIS6_EENS4_INS_4pairIKS6_S8_EEEEED2B7v160006Ev, symObjAddr: 0x3590, symBinAddr: 0x100016510, symSize: 0x20 }
  - { offsetInCU: 0x1C477, offset: 0x38B0D, size: 0x8, addend: 0x0, symName: __ZNSt3__16__treeINS_12__value_typeINS_12basic_stringIcNS_11char_traitsIcEENS_9allocatorIcEEEEP5ClassEENS_19__map_value_compareIS7_SA_NS_4lessIS7_EELb1EEENS5_ISA_EEED1Ev, symObjAddr: 0x35B0, symBinAddr: 0x100016530, symSize: 0x20 }
  - { offsetInCU: 0x1C4A3, offset: 0x38B39, size: 0x8, addend: 0x0, symName: __ZNSt3__16__treeINS_12__value_typeINS_12basic_stringIcNS_11char_traitsIcEENS_9allocatorIcEEEEP5ClassEENS_19__map_value_compareIS7_SA_NS_4lessIS7_EELb1EEENS5_ISA_EEED2Ev, symObjAddr: 0x35D0, symBinAddr: 0x100016550, symSize: 0x30 }
  - { offsetInCU: 0x1C4CF, offset: 0x38B65, size: 0x8, addend: 0x0, symName: __ZNSt3__16__treeINS_12__value_typeINS_12basic_stringIcNS_11char_traitsIcEENS_9allocatorIcEEEEP5ClassEENS_19__map_value_compareIS7_SA_NS_4lessIS7_EELb1EEENS5_ISA_EEE7destroyEPNS_11__tree_nodeISA_PvEE, symObjAddr: 0x3600, symBinAddr: 0x100016580, symSize: 0xB0 }
  - { offsetInCU: 0x1C51B, offset: 0x38BB1, size: 0x8, addend: 0x0, symName: __ZNKSt3__16__treeINS_12__value_typeINS_12basic_stringIcNS_11char_traitsIcEENS_9allocatorIcEEEEP5ClassEENS_19__map_value_compareIS7_SA_NS_4lessIS7_EELb1EEENS5_ISA_EEE6__rootB7v160006Ev, symObjAddr: 0x36B0, symBinAddr: 0x100016630, symSize: 0x20 }
  - { offsetInCU: 0x1C541, offset: 0x38BD7, size: 0x8, addend: 0x0, symName: __ZNSt3__16__treeINS_12__value_typeINS_12basic_stringIcNS_11char_traitsIcEENS_9allocatorIcEEEEP5ClassEENS_19__map_value_compareIS7_SA_NS_4lessIS7_EELb1EEENS5_ISA_EEE12__node_allocB7v160006Ev, symObjAddr: 0x36D0, symBinAddr: 0x100016650, symSize: 0x20 }
  - { offsetInCU: 0x1C567, offset: 0x38BFD, size: 0x8, addend: 0x0, symName: __ZNSt3__116allocator_traitsINS_9allocatorINS_11__tree_nodeINS_12__value_typeINS_12basic_stringIcNS_11char_traitsIcEENS1_IcEEEEP5ClassEEPvEEEEE7destroyB7v160006INS_4pairIKS8_SA_EEvvEEvRSE_PT_, symObjAddr: 0x36F0, symBinAddr: 0x100016670, symSize: 0x20 }
  - { offsetInCU: 0x1C5A2, offset: 0x38C38, size: 0x8, addend: 0x0, symName: __ZNSt3__122__tree_key_value_typesINS_12__value_typeINS_12basic_stringIcNS_11char_traitsIcEENS_9allocatorIcEEEEP5ClassEEE9__get_ptrB7v160006ERSA_, symObjAddr: 0x3710, symBinAddr: 0x100016690, symSize: 0x20 }
  - { offsetInCU: 0x1C5C6, offset: 0x38C5C, size: 0x8, addend: 0x0, symName: __ZNSt3__116allocator_traitsINS_9allocatorINS_11__tree_nodeINS_12__value_typeINS_12basic_stringIcNS_11char_traitsIcEENS1_IcEEEEP5ClassEEPvEEEEE10deallocateB7v160006ERSE_PSD_m, symObjAddr: 0x3730, symBinAddr: 0x1000166B0, symSize: 0x30 }
  - { offsetInCU: 0x1C608, offset: 0x38C9E, size: 0x8, addend: 0x0, symName: __ZNSt3__117__compressed_pairINS_15__tree_end_nodeIPNS_16__tree_node_baseIPvEEEENS_9allocatorINS_11__tree_nodeINS_12__value_typeINS_12basic_stringIcNS_11char_traitsIcEENS7_IcEEEEP5ClassEES3_EEEEE6secondB7v160006Ev, symObjAddr: 0x3760, symBinAddr: 0x1000166E0, symSize: 0x20 }
  - { offsetInCU: 0x1C62E, offset: 0x38CC4, size: 0x8, addend: 0x0, symName: __ZNSt3__122__compressed_pair_elemINS_9allocatorINS_11__tree_nodeINS_12__value_typeINS_12basic_stringIcNS_11char_traitsIcEENS1_IcEEEEP5ClassEEPvEEEELi1ELb1EE5__getB7v160006Ev, symObjAddr: 0x3780, symBinAddr: 0x100016700, symSize: 0x10 }
  - { offsetInCU: 0x1C654, offset: 0x38CEA, size: 0x8, addend: 0x0, symName: __ZNSt3__14pairIKNS_12basic_stringIcNS_11char_traitsIcEENS_9allocatorIcEEEEP5ClassED1Ev, symObjAddr: 0x3790, symBinAddr: 0x100016710, symSize: 0x20 }
  - { offsetInCU: 0x1C680, offset: 0x38D16, size: 0x8, addend: 0x0, symName: __ZNSt3__14pairIKNS_12basic_stringIcNS_11char_traitsIcEENS_9allocatorIcEEEEP5ClassED2Ev, symObjAddr: 0x37B0, symBinAddr: 0x100016730, symSize: 0x20 }
  - { offsetInCU: 0x1C6AC, offset: 0x38D42, size: 0x8, addend: 0x0, symName: __ZNSt3__112__value_typeINS_12basic_stringIcNS_11char_traitsIcEENS_9allocatorIcEEEEP5ClassE11__get_valueB7v160006Ev, symObjAddr: 0x37D0, symBinAddr: 0x100016750, symSize: 0x10 }
  - { offsetInCU: 0x1C6D2, offset: 0x38D68, size: 0x8, addend: 0x0, symName: __ZNSt3__19allocatorINS_11__tree_nodeINS_12__value_typeINS_12basic_stringIcNS_11char_traitsIcEENS0_IcEEEEP5ClassEEPvEEE10deallocateB7v160006EPSC_m, symObjAddr: 0x37E0, symBinAddr: 0x100016760, symSize: 0x40 }
  - { offsetInCU: 0x1C714, offset: 0x38DAA, size: 0x8, addend: 0x0, symName: __ZNKSt3__16__treeINS_12__value_typeINS_12basic_stringIcNS_11char_traitsIcEENS_9allocatorIcEEEEP5ClassEENS_19__map_value_compareIS7_SA_NS_4lessIS7_EELb1EEENS5_ISA_EEE10__end_nodeB7v160006Ev, symObjAddr: 0x3820, symBinAddr: 0x1000167A0, symSize: 0x30 }
  - { offsetInCU: 0x1C73A, offset: 0x38DD0, size: 0x8, addend: 0x0, symName: __ZNKSt3__117__compressed_pairINS_15__tree_end_nodeIPNS_16__tree_node_baseIPvEEEENS_9allocatorINS_11__tree_nodeINS_12__value_typeINS_12basic_stringIcNS_11char_traitsIcEENS7_IcEEEEP5ClassEES3_EEEEE5firstB7v160006Ev, symObjAddr: 0x3850, symBinAddr: 0x1000167D0, symSize: 0x20 }
  - { offsetInCU: 0x1C760, offset: 0x38DF6, size: 0x8, addend: 0x0, symName: __ZNSt3__16vectorIP5ScopeNS_9allocatorIS2_EEED2B7v160006Ev, symObjAddr: 0x3870, symBinAddr: 0x1000167F0, symSize: 0x40 }
  - { offsetInCU: 0x1C78A, offset: 0x38E20, size: 0x8, addend: 0x0, symName: __ZNSt3__16vectorIP5ScopeNS_9allocatorIS2_EEE16__destroy_vectorC1ERS5_, symObjAddr: 0x38B0, symBinAddr: 0x100016830, symSize: 0x30 }
  - { offsetInCU: 0x1C7C3, offset: 0x38E59, size: 0x8, addend: 0x0, symName: __ZNSt3__16vectorIP5ScopeNS_9allocatorIS2_EEE16__destroy_vectorclB7v160006Ev, symObjAddr: 0x38E0, symBinAddr: 0x100016860, symSize: 0x90 }
  - { offsetInCU: 0x1C7E9, offset: 0x38E7F, size: 0x8, addend: 0x0, symName: __ZNSt3__16vectorIP5ScopeNS_9allocatorIS2_EEE16__destroy_vectorC2ERS5_, symObjAddr: 0x3970, symBinAddr: 0x1000168F0, symSize: 0x20 }
  - { offsetInCU: 0x1C822, offset: 0x38EB8, size: 0x8, addend: 0x0, symName: __ZNKSt3__16vectorIP5ScopeNS_9allocatorIS2_EEE17__annotate_deleteB7v160006Ev, symObjAddr: 0x3990, symBinAddr: 0x100016910, symSize: 0xB0 }
  - { offsetInCU: 0x1C848, offset: 0x38EDE, size: 0x8, addend: 0x0, symName: __ZNSt3__16vectorIP5ScopeNS_9allocatorIS2_EEE7__clearB7v160006Ev, symObjAddr: 0x3A50, symBinAddr: 0x1000169D0, symSize: 0x20 }
  - { offsetInCU: 0x1C86E, offset: 0x38F04, size: 0x8, addend: 0x0, symName: __ZNSt3__116allocator_traitsINS_9allocatorIP5ScopeEEE10deallocateB7v160006ERS4_PS3_m, symObjAddr: 0x3A70, symBinAddr: 0x1000169F0, symSize: 0x30 }
  - { offsetInCU: 0x1C8B0, offset: 0x38F46, size: 0x8, addend: 0x0, symName: __ZNSt3__16vectorIP5ScopeNS_9allocatorIS2_EEE7__allocB7v160006Ev, symObjAddr: 0x3AA0, symBinAddr: 0x100016A20, symSize: 0x20 }
  - { offsetInCU: 0x1C8D6, offset: 0x38F6C, size: 0x8, addend: 0x0, symName: __ZNKSt3__16vectorIP5ScopeNS_9allocatorIS2_EEE8capacityB7v160006Ev, symObjAddr: 0x3AC0, symBinAddr: 0x100016A40, symSize: 0x30 }
  - { offsetInCU: 0x1C8FC, offset: 0x38F92, size: 0x8, addend: 0x0, symName: __ZNKSt3__16vectorIP5ScopeNS_9allocatorIS2_EEE31__annotate_contiguous_containerB7v160006EPKvS7_S7_S7_, symObjAddr: 0x3AF0, symBinAddr: 0x100016A70, symSize: 0x20 }
  - { offsetInCU: 0x1C952, offset: 0x38FE8, size: 0x8, addend: 0x0, symName: __ZNKSt3__16vectorIP5ScopeNS_9allocatorIS2_EEE4dataB7v160006Ev, symObjAddr: 0x3B10, symBinAddr: 0x100016A90, symSize: 0x20 }
  - { offsetInCU: 0x1C978, offset: 0x3900E, size: 0x8, addend: 0x0, symName: __ZNKSt3__16vectorIP5ScopeNS_9allocatorIS2_EEE4sizeB7v160006Ev, symObjAddr: 0x3B30, symBinAddr: 0x100016AB0, symSize: 0x20 }
  - { offsetInCU: 0x1C99E, offset: 0x39034, size: 0x8, addend: 0x0, symName: __ZNSt3__16vectorIP5ScopeNS_9allocatorIS2_EEE22__base_destruct_at_endB7v160006EPS2_, symObjAddr: 0x3B60, symBinAddr: 0x100016AE0, symSize: 0x80 }
  - { offsetInCU: 0x1C9E2, offset: 0x39078, size: 0x8, addend: 0x0, symName: __ZNSt3__116allocator_traitsINS_9allocatorIP5ScopeEEE7destroyB7v160006IS3_vEEvRS4_PT_, symObjAddr: 0x3BE0, symBinAddr: 0x100016B60, symSize: 0x30 }
  - { offsetInCU: 0x1CA1F, offset: 0x390B5, size: 0x8, addend: 0x0, symName: __ZNSt3__19allocatorIP5ScopeE7destroyB7v160006EPS2_, symObjAddr: 0x3C10, symBinAddr: 0x100016B90, symSize: 0x10 }
  - { offsetInCU: 0x1CA53, offset: 0x390E9, size: 0x8, addend: 0x0, symName: __ZNSt3__19allocatorIP5ScopeE10deallocateB7v160006EPS2_m, symObjAddr: 0x3C20, symBinAddr: 0x100016BA0, symSize: 0x40 }
  - { offsetInCU: 0x1CA95, offset: 0x3912B, size: 0x8, addend: 0x0, symName: __ZNSt3__117__compressed_pairIPP5ScopeNS_9allocatorIS2_EEE6secondB7v160006Ev, symObjAddr: 0x3C60, symBinAddr: 0x100016BE0, symSize: 0x20 }
  - { offsetInCU: 0x1CABB, offset: 0x39151, size: 0x8, addend: 0x0, symName: __ZNSt3__122__compressed_pair_elemINS_9allocatorIP5ScopeEELi1ELb1EE5__getB7v160006Ev, symObjAddr: 0x3C80, symBinAddr: 0x100016C00, symSize: 0x10 }
  - { offsetInCU: 0x1CAE1, offset: 0x39177, size: 0x8, addend: 0x0, symName: __ZNKSt3__16vectorIP5ScopeNS_9allocatorIS2_EEE9__end_capB7v160006Ev, symObjAddr: 0x3C90, symBinAddr: 0x100016C10, symSize: 0x20 }
  - { offsetInCU: 0x1CB07, offset: 0x3919D, size: 0x8, addend: 0x0, symName: __ZNKSt3__117__compressed_pairIPP5ScopeNS_9allocatorIS2_EEE5firstB7v160006Ev, symObjAddr: 0x3CB0, symBinAddr: 0x100016C30, symSize: 0x20 }
  - { offsetInCU: 0x1CB2D, offset: 0x391C3, size: 0x8, addend: 0x0, symName: __ZNKSt3__122__compressed_pair_elemIPP5ScopeLi0ELb0EE5__getB7v160006Ev, symObjAddr: 0x3CD0, symBinAddr: 0x100016C50, symSize: 0x10 }
  - { offsetInCU: 0x1CB53, offset: 0x391E9, size: 0x8, addend: 0x0, symName: __ZNSt3__14listIP4NodeNS_9allocatorIS2_EEEC1ERKS5_, symObjAddr: 0x3CE0, symBinAddr: 0x100016C60, symSize: 0x30 }
  - { offsetInCU: 0x1CB8E, offset: 0x39224, size: 0x8, addend: 0x0, symName: __ZN11SymbolTable16ClassDeclarationEP4Node, symObjAddr: 0x3D10, symBinAddr: 0x100016C90, symSize: 0x2B0 }
  - { offsetInCU: 0x1CBE2, offset: 0x39278, size: 0x8, addend: 0x0, symName: __ZN11SymbolTable17MethodDeclarationEP4Node, symObjAddr: 0x3FC0, symBinAddr: 0x100016F40, symSize: 0x560 }
  - { offsetInCU: 0x1CCBD, offset: 0x39353, size: 0x8, addend: 0x0, symName: __ZN11SymbolTable14VarDeclarationEP4Node, symObjAddr: 0x4520, symBinAddr: 0x1000174A0, symSize: 0x150 }
  - { offsetInCU: 0x1CD10, offset: 0x393A6, size: 0x8, addend: 0x0, symName: __ZN11SymbolTable21ExpressionOrStatementEP4Node, symObjAddr: 0x4670, symBinAddr: 0x1000175F0, symSize: 0x450 }
  - { offsetInCU: 0x1CDDB, offset: 0x39471, size: 0x8, addend: 0x0, symName: __ZN11SymbolTable16exitCurrentScopeEv, symObjAddr: 0x4AC0, symBinAddr: 0x100017A40, symSize: 0x50 }
  - { offsetInCU: 0x1CE01, offset: 0x39497, size: 0x8, addend: 0x0, symName: __ZNSt3__14listIP4NodeNS_9allocatorIS2_EEED1Ev, symObjAddr: 0x4B10, symBinAddr: 0x100017A90, symSize: 0x20 }
  - { offsetInCU: 0x1CE2E, offset: 0x394C4, size: 0x8, addend: 0x0, symName: __ZNSt3__14listIP4NodeNS_9allocatorIS2_EEEC2ERKS5_, symObjAddr: 0x4B30, symBinAddr: 0x100017AB0, symSize: 0xF0 }
  - { offsetInCU: 0x1CEA0, offset: 0x39536, size: 0x8, addend: 0x0, symName: __ZNSt3__116allocator_traitsINS_9allocatorINS_11__list_nodeIP4NodePvEEEEE37select_on_container_copy_constructionB7v160006IS7_vvEES7_RKS7_, symObjAddr: 0x4C20, symBinAddr: 0x100017BA0, symSize: 0x10 }
  - { offsetInCU: 0x1CECF, offset: 0x39565, size: 0x8, addend: 0x0, symName: __ZNKSt3__110__list_impIP4NodeNS_9allocatorIS2_EEE12__node_allocB7v160006Ev, symObjAddr: 0x4C30, symBinAddr: 0x100017BB0, symSize: 0x20 }
  - { offsetInCU: 0x1CEF5, offset: 0x3958B, size: 0x8, addend: 0x0, symName: __ZNSt3__110__list_impIP4NodeNS_9allocatorIS2_EEEC2EONS3_INS_11__list_nodeIS2_PvEEEE, symObjAddr: 0x4C50, symBinAddr: 0x100017BD0, symSize: 0x60 }
  - { offsetInCU: 0x1CF30, offset: 0x395C6, size: 0x8, addend: 0x0, symName: __ZNKSt3__14listIP4NodeNS_9allocatorIS2_EEE5beginB7v160006Ev, symObjAddr: 0x4CC0, symBinAddr: 0x100017C30, symSize: 0x30 }
  - { offsetInCU: 0x1CF56, offset: 0x395EC, size: 0x8, addend: 0x0, symName: __ZNKSt3__14listIP4NodeNS_9allocatorIS2_EEE3endB7v160006Ev, symObjAddr: 0x4CF0, symBinAddr: 0x100017C60, symSize: 0x30 }
  - { offsetInCU: 0x1CF7C, offset: 0x39612, size: 0x8, addend: 0x0, symName: __ZNKSt3__121__list_const_iteratorIP4NodePvEdeB7v160006Ev, symObjAddr: 0x4E50, symBinAddr: 0x100017CC0, symSize: 0x30 }
  - { offsetInCU: 0x1CFA2, offset: 0x39638, size: 0x8, addend: 0x0, symName: __ZNSt3__121__list_const_iteratorIP4NodePvEppB7v160006Ev, symObjAddr: 0x4E80, symBinAddr: 0x100017CF0, symSize: 0x20 }
  - { offsetInCU: 0x1CFC8, offset: 0x3965E, size: 0x8, addend: 0x0, symName: __ZNSt3__110__list_impIP4NodeNS_9allocatorIS2_EEED2Ev, symObjAddr: 0x4EA0, symBinAddr: 0x100017D10, symSize: 0x40 }
  - { offsetInCU: 0x1CFF4, offset: 0x3968A, size: 0x8, addend: 0x0, symName: __ZNKSt3__117__compressed_pairImNS_9allocatorINS_11__list_nodeIP4NodePvEEEEE6secondB7v160006Ev, symObjAddr: 0x4EE0, symBinAddr: 0x100017D50, symSize: 0x20 }
  - { offsetInCU: 0x1D01A, offset: 0x396B0, size: 0x8, addend: 0x0, symName: __ZNKSt3__122__compressed_pair_elemINS_9allocatorINS_11__list_nodeIP4NodePvEEEELi1ELb1EE5__getB7v160006Ev, symObjAddr: 0x4F00, symBinAddr: 0x100017D70, symSize: 0x10 }
  - { offsetInCU: 0x1D045, offset: 0x396DB, size: 0x8, addend: 0x0, symName: __ZNSt3__117__compressed_pairImNS_9allocatorINS_11__list_nodeIP4NodePvEEEEEC1B7v160006IiS7_EEOT_OT0_, symObjAddr: 0x4F30, symBinAddr: 0x100017D80, symSize: 0x30 }
  - { offsetInCU: 0x1D09D, offset: 0x39733, size: 0x8, addend: 0x0, symName: __ZNSt3__117__compressed_pairImNS_9allocatorINS_11__list_nodeIP4NodePvEEEEEC2B7v160006IiS7_EEOT_OT0_, symObjAddr: 0x4FB0, symBinAddr: 0x100017DB0, symSize: 0x40 }
  - { offsetInCU: 0x1D0F5, offset: 0x3978B, size: 0x8, addend: 0x0, symName: __ZNSt3__122__compressed_pair_elemINS_9allocatorINS_11__list_nodeIP4NodePvEEEELi1ELb1EEC2B7v160006IS7_vEEOT_, symObjAddr: 0x4FF0, symBinAddr: 0x100017DF0, symSize: 0x10 }
  - { offsetInCU: 0x1D137, offset: 0x397CD, size: 0x8, addend: 0x0, symName: __ZNKSt3__110__list_impIP4NodeNS_9allocatorIS2_EEE5beginB7v160006Ev, symObjAddr: 0x5000, symBinAddr: 0x100017E00, symSize: 0x30 }
  - { offsetInCU: 0x1D15D, offset: 0x397F3, size: 0x8, addend: 0x0, symName: __ZNSt3__121__list_const_iteratorIP4NodePvEC1B7v160006EPNS_16__list_node_baseIS2_S3_EEPKv, symObjAddr: 0x5030, symBinAddr: 0x100017E30, symSize: 0x30 }
  - { offsetInCU: 0x1D1A5, offset: 0x3983B, size: 0x8, addend: 0x0, symName: __ZNSt3__121__list_const_iteratorIP4NodePvEC2B7v160006EPNS_16__list_node_baseIS2_S3_EEPKv, symObjAddr: 0x5060, symBinAddr: 0x100017E60, symSize: 0x20 }
  - { offsetInCU: 0x1D1ED, offset: 0x39883, size: 0x8, addend: 0x0, symName: __ZNKSt3__110__list_impIP4NodeNS_9allocatorIS2_EEE3endB7v160006Ev, symObjAddr: 0x5080, symBinAddr: 0x100017E80, symSize: 0x40 }
  - { offsetInCU: 0x1D213, offset: 0x398A9, size: 0x8, addend: 0x0, symName: __ZNSt3__110__list_impIP4NodeNS_9allocatorIS2_EEE5clearEv, symObjAddr: 0x5820, symBinAddr: 0x100017EF0, symSize: 0xE0 }
  - { offsetInCU: 0x1D283, offset: 0x39919, size: 0x8, addend: 0x0, symName: __ZNKSt3__110__list_impIP4NodeNS_9allocatorIS2_EEE5emptyB7v160006Ev, symObjAddr: 0x5910, symBinAddr: 0x100017FE0, symSize: 0x30 }
  - { offsetInCU: 0x1D2A9, offset: 0x3993F, size: 0x8, addend: 0x0, symName: __ZNSt3__110__list_impIP4NodeNS_9allocatorIS2_EEE14__unlink_nodesEPNS_16__list_node_baseIS2_PvEES9_, symObjAddr: 0x5940, symBinAddr: 0x100018010, symSize: 0x40 }
  - { offsetInCU: 0x1D2DE, offset: 0x39974, size: 0x8, addend: 0x0, symName: __ZNSt3__116allocator_traitsINS_9allocatorINS_11__list_nodeIP4NodePvEEEEE7destroyB7v160006IS4_vvEEvRS7_PT_, symObjAddr: 0x5980, symBinAddr: 0x100018050, symSize: 0x10 }
  - { offsetInCU: 0x1D319, offset: 0x399AF, size: 0x8, addend: 0x0, symName: __ZNKSt3__110__list_impIP4NodeNS_9allocatorIS2_EEE4__szB7v160006Ev, symObjAddr: 0x59A0, symBinAddr: 0x100018070, symSize: 0x20 }
  - { offsetInCU: 0x1D33F, offset: 0x399D5, size: 0x8, addend: 0x0, symName: __ZNKSt3__117__compressed_pairImNS_9allocatorINS_11__list_nodeIP4NodePvEEEEE5firstB7v160006Ev, symObjAddr: 0x59C0, symBinAddr: 0x100018090, symSize: 0x20 }
  - { offsetInCU: 0x1D365, offset: 0x399FB, size: 0x8, addend: 0x0, symName: __ZNKSt3__122__compressed_pair_elemImLi0ELb0EE5__getB7v160006Ev, symObjAddr: 0x59E0, symBinAddr: 0x1000180B0, symSize: 0x10 }
  - { offsetInCU: 0x1D38B, offset: 0x39A21, size: 0x8, addend: 0x0, symName: __ZNKSt3__112basic_stringIcNS_11char_traitsIcEENS_9allocatorIcEEE5emptyB7v160006Ev, symObjAddr: 0x59F0, symBinAddr: 0x1000180C0, symSize: 0x30 }
  - { offsetInCU: 0x1D3B1, offset: 0x39A47, size: 0x8, addend: 0x0, symName: __ZN5ClassC1Ev, symObjAddr: 0x5A20, symBinAddr: 0x1000180F0, symSize: 0x20 }
  - { offsetInCU: 0x1D3DB, offset: 0x39A71, size: 0x8, addend: 0x0, symName: __ZN6Record7setNameENSt3__112basic_stringIcNS0_11char_traitsIcEENS0_9allocatorIcEEEE, symObjAddr: 0x5A40, symBinAddr: 0x100018110, symSize: 0x30 }
  - { offsetInCU: 0x1D410, offset: 0x39AA6, size: 0x8, addend: 0x0, symName: __ZN6Record7setTypeENSt3__112basic_stringIcNS0_11char_traitsIcEENS0_9allocatorIcEEEE, symObjAddr: 0x5A70, symBinAddr: 0x100018140, symSize: 0x30 }
  - { offsetInCU: 0x1D445, offset: 0x39ADB, size: 0x8, addend: 0x0, symName: __ZN5Scope9addRecordEP6Record, symObjAddr: 0x5AA0, symBinAddr: 0x100018170, symSize: 0x2D0 }
  - { offsetInCU: 0x1D479, offset: 0x39B0F, size: 0x8, addend: 0x0, symName: __ZN11SymbolTable13AddNewToScopeEP6Record, symObjAddr: 0x5D70, symBinAddr: 0x100018440, symSize: 0x190 }
  - { offsetInCU: 0x1D4BD, offset: 0x39B53, size: 0x8, addend: 0x0, symName: __ZN8VariableC1Ev, symObjAddr: 0x5F00, symBinAddr: 0x1000185D0, symSize: 0x20 }
  - { offsetInCU: 0x1D4E7, offset: 0x39B7D, size: 0x8, addend: 0x0, symName: __ZNSt3__112basic_stringIcNS_11char_traitsIcEENS_9allocatorIcEEEaSB7v160006EPKc, symObjAddr: 0x5F20, symBinAddr: 0x1000185F0, symSize: 0x30 }
  - { offsetInCU: 0x1D51C, offset: 0x39BB2, size: 0x8, addend: 0x0, symName: __ZN5ClassC2Ev, symObjAddr: 0x5F50, symBinAddr: 0x100018620, symSize: 0xA0 }
  - { offsetInCU: 0x1D546, offset: 0x39BDC, size: 0x8, addend: 0x0, symName: __ZN6RecordC2Ev, symObjAddr: 0x5FF0, symBinAddr: 0x1000186C0, symSize: 0xB0 }
  - { offsetInCU: 0x1D570, offset: 0x39C06, size: 0x8, addend: 0x0, symName: __ZNSt3__16vectorIP8VariableNS_9allocatorIS2_EEEC1B7v160006Ev, symObjAddr: 0x60A0, symBinAddr: 0x100018770, symSize: 0x20 }
  - { offsetInCU: 0x1D59A, offset: 0x39C30, size: 0x8, addend: 0x0, symName: __ZNSt3__16vectorIP6MethodNS_9allocatorIS2_EEEC1B7v160006Ev, symObjAddr: 0x60C0, symBinAddr: 0x100018790, symSize: 0x20 }
  - { offsetInCU: 0x1D5C4, offset: 0x39C5A, size: 0x8, addend: 0x0, symName: __ZNSt3__16vectorIP6MethodNS_9allocatorIS2_EEED1B7v160006Ev, symObjAddr: 0x60E0, symBinAddr: 0x1000187B0, symSize: 0x20 }
  - { offsetInCU: 0x1D5EE, offset: 0x39C84, size: 0x8, addend: 0x0, symName: __ZNSt3__16vectorIP8VariableNS_9allocatorIS2_EEED1B7v160006Ev, symObjAddr: 0x6100, symBinAddr: 0x1000187D0, symSize: 0x20 }
  - { offsetInCU: 0x1D618, offset: 0x39CAE, size: 0x8, addend: 0x0, symName: __ZN6RecordD2Ev, symObjAddr: 0x6120, symBinAddr: 0x1000187F0, symSize: 0x50 }
  - { offsetInCU: 0x1D642, offset: 0x39CD8, size: 0x8, addend: 0x0, symName: __ZN5ClassD1Ev, symObjAddr: 0x6170, symBinAddr: 0x100018840, symSize: 0x20 }
  - { offsetInCU: 0x1D66E, offset: 0x39D04, size: 0x8, addend: 0x0, symName: __ZN5ClassD0Ev, symObjAddr: 0x6190, symBinAddr: 0x100018860, symSize: 0x30 }
  - { offsetInCU: 0x1D69A, offset: 0x39D30, size: 0x8, addend: 0x0, symName: __ZN6RecordD1Ev, symObjAddr: 0x61C0, symBinAddr: 0x100018890, symSize: 0x20 }
  - { offsetInCU: 0x1D6C4, offset: 0x39D5A, size: 0x8, addend: 0x0, symName: __ZN6RecordD0Ev, symObjAddr: 0x61E0, symBinAddr: 0x1000188B0, symSize: 0x30 }
  - { offsetInCU: 0x1D6EE, offset: 0x39D84, size: 0x8, addend: 0x0, symName: __ZNSt3__16vectorIP8VariableNS_9allocatorIS2_EEEC2B7v160006Ev, symObjAddr: 0x6210, symBinAddr: 0x1000188E0, symSize: 0x60 }
  - { offsetInCU: 0x1D718, offset: 0x39DAE, size: 0x8, addend: 0x0, symName: __ZNSt3__117__compressed_pairIPP8VariableNS_9allocatorIS2_EEEC1B7v160006IDnNS_18__default_init_tagEEEOT_OT0_, symObjAddr: 0x6270, symBinAddr: 0x100018940, symSize: 0x30 }
  - { offsetInCU: 0x1D770, offset: 0x39E06, size: 0x8, addend: 0x0, symName: __ZNSt3__117__compressed_pairIPP8VariableNS_9allocatorIS2_EEEC2B7v160006IDnNS_18__default_init_tagEEEOT_OT0_, symObjAddr: 0x62B0, symBinAddr: 0x100018980, symSize: 0x40 }
  - { offsetInCU: 0x1D7C8, offset: 0x39E5E, size: 0x8, addend: 0x0, symName: __ZNSt3__122__compressed_pair_elemIPP8VariableLi0ELb0EEC2B7v160006IDnvEEOT_, symObjAddr: 0x62F0, symBinAddr: 0x1000189C0, symSize: 0x20 }
  - { offsetInCU: 0x1D80A, offset: 0x39EA0, size: 0x8, addend: 0x0, symName: __ZNSt3__122__compressed_pair_elemINS_9allocatorIP8VariableEELi1ELb1EEC2B7v160006ENS_18__default_init_tagE, symObjAddr: 0x6310, symBinAddr: 0x1000189E0, symSize: 0x20 }
  - { offsetInCU: 0x1D83F, offset: 0x39ED5, size: 0x8, addend: 0x0, symName: __ZNSt3__19allocatorIP8VariableEC2B7v160006Ev, symObjAddr: 0x6330, symBinAddr: 0x100018A00, symSize: 0x20 }
  - { offsetInCU: 0x1D869, offset: 0x39EFF, size: 0x8, addend: 0x0, symName: __ZNSt3__116__non_trivial_ifILb1ENS_9allocatorIP8VariableEEEC2B7v160006Ev, symObjAddr: 0x6350, symBinAddr: 0x100018A20, symSize: 0x10 }
  - { offsetInCU: 0x1D893, offset: 0x39F29, size: 0x8, addend: 0x0, symName: __ZNSt3__16vectorIP6MethodNS_9allocatorIS2_EEEC2B7v160006Ev, symObjAddr: 0x6360, symBinAddr: 0x100018A30, symSize: 0x60 }
  - { offsetInCU: 0x1D8BD, offset: 0x39F53, size: 0x8, addend: 0x0, symName: __ZNSt3__117__compressed_pairIPP6MethodNS_9allocatorIS2_EEEC1B7v160006IDnNS_18__default_init_tagEEEOT_OT0_, symObjAddr: 0x63C0, symBinAddr: 0x100018A90, symSize: 0x30 }
  - { offsetInCU: 0x1D915, offset: 0x39FAB, size: 0x8, addend: 0x0, symName: __ZNSt3__117__compressed_pairIPP6MethodNS_9allocatorIS2_EEEC2B7v160006IDnNS_18__default_init_tagEEEOT_OT0_, symObjAddr: 0x6400, symBinAddr: 0x100018AD0, symSize: 0x40 }
  - { offsetInCU: 0x1D96D, offset: 0x3A003, size: 0x8, addend: 0x0, symName: __ZNSt3__122__compressed_pair_elemIPP6MethodLi0ELb0EEC2B7v160006IDnvEEOT_, symObjAddr: 0x6440, symBinAddr: 0x100018B10, symSize: 0x20 }
  - { offsetInCU: 0x1D9AF, offset: 0x3A045, size: 0x8, addend: 0x0, symName: __ZNSt3__122__compressed_pair_elemINS_9allocatorIP6MethodEELi1ELb1EEC2B7v160006ENS_18__default_init_tagE, symObjAddr: 0x6460, symBinAddr: 0x100018B30, symSize: 0x20 }
  - { offsetInCU: 0x1D9E4, offset: 0x3A07A, size: 0x8, addend: 0x0, symName: __ZNSt3__19allocatorIP6MethodEC2B7v160006Ev, symObjAddr: 0x6480, symBinAddr: 0x100018B50, symSize: 0x20 }
  - { offsetInCU: 0x1DA0E, offset: 0x3A0A4, size: 0x8, addend: 0x0, symName: __ZNSt3__116__non_trivial_ifILb1ENS_9allocatorIP6MethodEEEC2B7v160006Ev, symObjAddr: 0x64A0, symBinAddr: 0x100018B70, symSize: 0x10 }
  - { offsetInCU: 0x1DA38, offset: 0x3A0CE, size: 0x8, addend: 0x0, symName: __ZNSt3__16vectorIP6MethodNS_9allocatorIS2_EEED2B7v160006Ev, symObjAddr: 0x64B0, symBinAddr: 0x100018B80, symSize: 0x40 }
  - { offsetInCU: 0x1DA62, offset: 0x3A0F8, size: 0x8, addend: 0x0, symName: __ZNSt3__16vectorIP6MethodNS_9allocatorIS2_EEE16__destroy_vectorC1ERS5_, symObjAddr: 0x64F0, symBinAddr: 0x100018BC0, symSize: 0x30 }
  - { offsetInCU: 0x1DA9B, offset: 0x3A131, size: 0x8, addend: 0x0, symName: __ZNSt3__16vectorIP6MethodNS_9allocatorIS2_EEE16__destroy_vectorclB7v160006Ev, symObjAddr: 0x6520, symBinAddr: 0x100018BF0, symSize: 0x90 }
  - { offsetInCU: 0x1DAC1, offset: 0x3A157, size: 0x8, addend: 0x0, symName: __ZNSt3__16vectorIP6MethodNS_9allocatorIS2_EEE16__destroy_vectorC2ERS5_, symObjAddr: 0x65B0, symBinAddr: 0x100018C80, symSize: 0x20 }
  - { offsetInCU: 0x1DAFA, offset: 0x3A190, size: 0x8, addend: 0x0, symName: __ZNKSt3__16vectorIP6MethodNS_9allocatorIS2_EEE17__annotate_deleteB7v160006Ev, symObjAddr: 0x65D0, symBinAddr: 0x100018CA0, symSize: 0xB0 }
  - { offsetInCU: 0x1DB20, offset: 0x3A1B6, size: 0x8, addend: 0x0, symName: __ZNSt3__16vectorIP6MethodNS_9allocatorIS2_EEE7__clearB7v160006Ev, symObjAddr: 0x6690, symBinAddr: 0x100018D60, symSize: 0x20 }
  - { offsetInCU: 0x1DB46, offset: 0x3A1DC, size: 0x8, addend: 0x0, symName: __ZNSt3__116allocator_traitsINS_9allocatorIP6MethodEEE10deallocateB7v160006ERS4_PS3_m, symObjAddr: 0x66B0, symBinAddr: 0x100018D80, symSize: 0x30 }
  - { offsetInCU: 0x1DB88, offset: 0x3A21E, size: 0x8, addend: 0x0, symName: __ZNSt3__16vectorIP6MethodNS_9allocatorIS2_EEE7__allocB7v160006Ev, symObjAddr: 0x66E0, symBinAddr: 0x100018DB0, symSize: 0x20 }
  - { offsetInCU: 0x1DBAE, offset: 0x3A244, size: 0x8, addend: 0x0, symName: __ZNKSt3__16vectorIP6MethodNS_9allocatorIS2_EEE8capacityB7v160006Ev, symObjAddr: 0x6700, symBinAddr: 0x100018DD0, symSize: 0x30 }
  - { offsetInCU: 0x1DBD4, offset: 0x3A26A, size: 0x8, addend: 0x0, symName: __ZNKSt3__16vectorIP6MethodNS_9allocatorIS2_EEE31__annotate_contiguous_containerB7v160006EPKvS7_S7_S7_, symObjAddr: 0x6730, symBinAddr: 0x100018E00, symSize: 0x20 }
  - { offsetInCU: 0x1DC2A, offset: 0x3A2C0, size: 0x8, addend: 0x0, symName: __ZNKSt3__16vectorIP6MethodNS_9allocatorIS2_EEE4dataB7v160006Ev, symObjAddr: 0x6750, symBinAddr: 0x100018E20, symSize: 0x20 }
  - { offsetInCU: 0x1DC50, offset: 0x3A2E6, size: 0x8, addend: 0x0, symName: __ZNKSt3__16vectorIP6MethodNS_9allocatorIS2_EEE4sizeB7v160006Ev, symObjAddr: 0x6770, symBinAddr: 0x100018E40, symSize: 0x20 }
  - { offsetInCU: 0x1DC76, offset: 0x3A30C, size: 0x8, addend: 0x0, symName: __ZNSt3__16vectorIP6MethodNS_9allocatorIS2_EEE22__base_destruct_at_endB7v160006EPS2_, symObjAddr: 0x67A0, symBinAddr: 0x100018E70, symSize: 0x80 }
  - { offsetInCU: 0x1DCBA, offset: 0x3A350, size: 0x8, addend: 0x0, symName: __ZNSt3__116allocator_traitsINS_9allocatorIP6MethodEEE7destroyB7v160006IS3_vEEvRS4_PT_, symObjAddr: 0x6820, symBinAddr: 0x100018EF0, symSize: 0x30 }
  - { offsetInCU: 0x1DCF7, offset: 0x3A38D, size: 0x8, addend: 0x0, symName: __ZNSt3__19allocatorIP6MethodE7destroyB7v160006EPS2_, symObjAddr: 0x6850, symBinAddr: 0x100018F20, symSize: 0x10 }
  - { offsetInCU: 0x1DD2B, offset: 0x3A3C1, size: 0x8, addend: 0x0, symName: __ZNSt3__19allocatorIP6MethodE10deallocateB7v160006EPS2_m, symObjAddr: 0x6860, symBinAddr: 0x100018F30, symSize: 0x40 }
  - { offsetInCU: 0x1DD6D, offset: 0x3A403, size: 0x8, addend: 0x0, symName: __ZNSt3__117__compressed_pairIPP6MethodNS_9allocatorIS2_EEE6secondB7v160006Ev, symObjAddr: 0x68A0, symBinAddr: 0x100018F70, symSize: 0x20 }
  - { offsetInCU: 0x1DD93, offset: 0x3A429, size: 0x8, addend: 0x0, symName: __ZNSt3__122__compressed_pair_elemINS_9allocatorIP6MethodEELi1ELb1EE5__getB7v160006Ev, symObjAddr: 0x68C0, symBinAddr: 0x100018F90, symSize: 0x10 }
  - { offsetInCU: 0x1DDB9, offset: 0x3A44F, size: 0x8, addend: 0x0, symName: __ZNKSt3__16vectorIP6MethodNS_9allocatorIS2_EEE9__end_capB7v160006Ev, symObjAddr: 0x68D0, symBinAddr: 0x100018FA0, symSize: 0x20 }
  - { offsetInCU: 0x1DDDF, offset: 0x3A475, size: 0x8, addend: 0x0, symName: __ZNKSt3__117__compressed_pairIPP6MethodNS_9allocatorIS2_EEE5firstB7v160006Ev, symObjAddr: 0x68F0, symBinAddr: 0x100018FC0, symSize: 0x20 }
  - { offsetInCU: 0x1DE05, offset: 0x3A49B, size: 0x8, addend: 0x0, symName: __ZNKSt3__122__compressed_pair_elemIPP6MethodLi0ELb0EE5__getB7v160006Ev, symObjAddr: 0x6910, symBinAddr: 0x100018FE0, symSize: 0x10 }
  - { offsetInCU: 0x1DE2B, offset: 0x3A4C1, size: 0x8, addend: 0x0, symName: __ZNSt3__16vectorIP8VariableNS_9allocatorIS2_EEED2B7v160006Ev, symObjAddr: 0x6920, symBinAddr: 0x100018FF0, symSize: 0x40 }
  - { offsetInCU: 0x1DE55, offset: 0x3A4EB, size: 0x8, addend: 0x0, symName: __ZNSt3__16vectorIP8VariableNS_9allocatorIS2_EEE16__destroy_vectorC1ERS5_, symObjAddr: 0x6960, symBinAddr: 0x100019030, symSize: 0x30 }
  - { offsetInCU: 0x1DE8E, offset: 0x3A524, size: 0x8, addend: 0x0, symName: __ZNSt3__16vectorIP8VariableNS_9allocatorIS2_EEE16__destroy_vectorclB7v160006Ev, symObjAddr: 0x6990, symBinAddr: 0x100019060, symSize: 0x90 }
  - { offsetInCU: 0x1DEB4, offset: 0x3A54A, size: 0x8, addend: 0x0, symName: __ZNSt3__16vectorIP8VariableNS_9allocatorIS2_EEE16__destroy_vectorC2ERS5_, symObjAddr: 0x6A20, symBinAddr: 0x1000190F0, symSize: 0x20 }
  - { offsetInCU: 0x1DEED, offset: 0x3A583, size: 0x8, addend: 0x0, symName: __ZNKSt3__16vectorIP8VariableNS_9allocatorIS2_EEE17__annotate_deleteB7v160006Ev, symObjAddr: 0x6A40, symBinAddr: 0x100019110, symSize: 0xB0 }
  - { offsetInCU: 0x1DF13, offset: 0x3A5A9, size: 0x8, addend: 0x0, symName: __ZNSt3__16vectorIP8VariableNS_9allocatorIS2_EEE7__clearB7v160006Ev, symObjAddr: 0x6B00, symBinAddr: 0x1000191D0, symSize: 0x20 }
  - { offsetInCU: 0x1DF39, offset: 0x3A5CF, size: 0x8, addend: 0x0, symName: __ZNSt3__116allocator_traitsINS_9allocatorIP8VariableEEE10deallocateB7v160006ERS4_PS3_m, symObjAddr: 0x6B20, symBinAddr: 0x1000191F0, symSize: 0x30 }
  - { offsetInCU: 0x1DF7B, offset: 0x3A611, size: 0x8, addend: 0x0, symName: __ZNSt3__16vectorIP8VariableNS_9allocatorIS2_EEE7__allocB7v160006Ev, symObjAddr: 0x6B50, symBinAddr: 0x100019220, symSize: 0x20 }
  - { offsetInCU: 0x1DFA1, offset: 0x3A637, size: 0x8, addend: 0x0, symName: __ZNKSt3__16vectorIP8VariableNS_9allocatorIS2_EEE8capacityB7v160006Ev, symObjAddr: 0x6B70, symBinAddr: 0x100019240, symSize: 0x30 }
  - { offsetInCU: 0x1DFC7, offset: 0x3A65D, size: 0x8, addend: 0x0, symName: __ZNKSt3__16vectorIP8VariableNS_9allocatorIS2_EEE31__annotate_contiguous_containerB7v160006EPKvS7_S7_S7_, symObjAddr: 0x6BA0, symBinAddr: 0x100019270, symSize: 0x20 }
  - { offsetInCU: 0x1E01D, offset: 0x3A6B3, size: 0x8, addend: 0x0, symName: __ZNKSt3__16vectorIP8VariableNS_9allocatorIS2_EEE4dataB7v160006Ev, symObjAddr: 0x6BC0, symBinAddr: 0x100019290, symSize: 0x20 }
  - { offsetInCU: 0x1E043, offset: 0x3A6D9, size: 0x8, addend: 0x0, symName: __ZNKSt3__16vectorIP8VariableNS_9allocatorIS2_EEE4sizeB7v160006Ev, symObjAddr: 0x6BE0, symBinAddr: 0x1000192B0, symSize: 0x20 }
  - { offsetInCU: 0x1E069, offset: 0x3A6FF, size: 0x8, addend: 0x0, symName: __ZNSt3__16vectorIP8VariableNS_9allocatorIS2_EEE22__base_destruct_at_endB7v160006EPS2_, symObjAddr: 0x6C10, symBinAddr: 0x1000192E0, symSize: 0x80 }
  - { offsetInCU: 0x1E0AD, offset: 0x3A743, size: 0x8, addend: 0x0, symName: __ZNSt3__116allocator_traitsINS_9allocatorIP8VariableEEE7destroyB7v160006IS3_vEEvRS4_PT_, symObjAddr: 0x6C90, symBinAddr: 0x100019360, symSize: 0x30 }
  - { offsetInCU: 0x1E0EA, offset: 0x3A780, size: 0x8, addend: 0x0, symName: __ZNSt3__19allocatorIP8VariableE7destroyB7v160006EPS2_, symObjAddr: 0x6CC0, symBinAddr: 0x100019390, symSize: 0x10 }
  - { offsetInCU: 0x1E11E, offset: 0x3A7B4, size: 0x8, addend: 0x0, symName: __ZNSt3__19allocatorIP8VariableE10deallocateB7v160006EPS2_m, symObjAddr: 0x6CD0, symBinAddr: 0x1000193A0, symSize: 0x40 }
  - { offsetInCU: 0x1E160, offset: 0x3A7F6, size: 0x8, addend: 0x0, symName: __ZNSt3__117__compressed_pairIPP8VariableNS_9allocatorIS2_EEE6secondB7v160006Ev, symObjAddr: 0x6D10, symBinAddr: 0x1000193E0, symSize: 0x20 }
  - { offsetInCU: 0x1E186, offset: 0x3A81C, size: 0x8, addend: 0x0, symName: __ZNSt3__122__compressed_pair_elemINS_9allocatorIP8VariableEELi1ELb1EE5__getB7v160006Ev, symObjAddr: 0x6D30, symBinAddr: 0x100019400, symSize: 0x10 }
  - { offsetInCU: 0x1E1AC, offset: 0x3A842, size: 0x8, addend: 0x0, symName: __ZNKSt3__16vectorIP8VariableNS_9allocatorIS2_EEE9__end_capB7v160006Ev, symObjAddr: 0x6D40, symBinAddr: 0x100019410, symSize: 0x20 }
  - { offsetInCU: 0x1E1D2, offset: 0x3A868, size: 0x8, addend: 0x0, symName: __ZNKSt3__117__compressed_pairIPP8VariableNS_9allocatorIS2_EEE5firstB7v160006Ev, symObjAddr: 0x6D60, symBinAddr: 0x100019430, symSize: 0x20 }
  - { offsetInCU: 0x1E1F8, offset: 0x3A88E, size: 0x8, addend: 0x0, symName: __ZNKSt3__122__compressed_pair_elemIPP8VariableLi0ELb0EE5__getB7v160006Ev, symObjAddr: 0x6D80, symBinAddr: 0x100019450, symSize: 0x10 }
  - { offsetInCU: 0x1E21E, offset: 0x3A8B4, size: 0x8, addend: 0x0, symName: __ZN5ClassD2Ev, symObjAddr: 0x6D90, symBinAddr: 0x100019460, symSize: 0x50 }
  - { offsetInCU: 0x1E24A, offset: 0x3A8E0, size: 0x8, addend: 0x0, symName: __ZNSt3__13mapINS_12basic_stringIcNS_11char_traitsIcEENS_9allocatorIcEEEEP5ClassNS_4lessIS6_EENS4_INS_4pairIKS6_S8_EEEEEixERSC_, symObjAddr: 0x6DE0, symBinAddr: 0x1000194B0, symSize: 0x70 }
  - { offsetInCU: 0x1E281, offset: 0x3A917, size: 0x8, addend: 0x0, symName: __ZNSt3__13mapINS_12basic_stringIcNS_11char_traitsIcEENS_9allocatorIcEEEEP6MethodNS_4lessIS6_EENS4_INS_4pairIKS6_S8_EEEEEixERSC_, symObjAddr: 0x6E50, symBinAddr: 0x100019520, symSize: 0x70 }
  - { offsetInCU: 0x1E2B8, offset: 0x3A94E, size: 0x8, addend: 0x0, symName: __ZNSt3__13mapINS_12basic_stringIcNS_11char_traitsIcEENS_9allocatorIcEEEEP8VariableNS_4lessIS6_EENS4_INS_4pairIKS6_S8_EEEEEixERSC_, symObjAddr: 0x6EC0, symBinAddr: 0x100019590, symSize: 0x70 }
  - { offsetInCU: 0x1E303, offset: 0x3A999, size: 0x8, addend: 0x0, symName: __ZNSt3__16__treeINS_12__value_typeINS_12basic_stringIcNS_11char_traitsIcEENS_9allocatorIcEEEEP5ClassEENS_19__map_value_compareIS7_SA_NS_4lessIS7_EELb1EEENS5_ISA_EEE25__emplace_unique_key_argsIS7_JRKNS_21piecewise_construct_tENS_5tupleIJRKS7_EEENSL_IJEEEEEENS_4pairINS_15__tree_iteratorISA_PNS_11__tree_nodeISA_PvEElEEbEERKT_DpOT0_, symObjAddr: 0x6F30, symBinAddr: 0x100019600, symSize: 0x100 }
  - { offsetInCU: 0x1E3E3, offset: 0x3AA79, size: 0x8, addend: 0x0, symName: __ZNKSt3__115__tree_iteratorINS_12__value_typeINS_12basic_stringIcNS_11char_traitsIcEENS_9allocatorIcEEEEP5ClassEEPNS_11__tree_nodeISA_PvEElEptB7v160006Ev, symObjAddr: 0x7070, symBinAddr: 0x100019740, symSize: 0x30 }
  - { offsetInCU: 0x1E409, offset: 0x3AA9F, size: 0x8, addend: 0x0, symName: __ZNSt3__16__treeINS_12__value_typeINS_12basic_stringIcNS_11char_traitsIcEENS_9allocatorIcEEEEP5ClassEENS_19__map_value_compareIS7_SA_NS_4lessIS7_EELb1EEENS5_ISA_EEE12__find_equalIS7_EERPNS_16__tree_node_baseIPvEERPNS_15__tree_end_nodeISL_EERKT_, symObjAddr: 0x70A0, symBinAddr: 0x100019770, symSize: 0x180 }
  - { offsetInCU: 0x1E476, offset: 0x3AB0C, size: 0x8, addend: 0x0, symName: __ZNSt3__16__treeINS_12__value_typeINS_12basic_stringIcNS_11char_traitsIcEENS_9allocatorIcEEEEP5ClassEENS_19__map_value_compareIS7_SA_NS_4lessIS7_EELb1EEENS5_ISA_EEE16__construct_nodeIJRKNS_21piecewise_construct_tENS_5tupleIJRKS7_EEENSL_IJEEEEEENS_10unique_ptrINS_11__tree_nodeISA_PvEENS_22__tree_node_destructorINS5_IST_EEEEEEDpOT_, symObjAddr: 0x7220, symBinAddr: 0x1000198F0, symSize: 0x120 }
  - { offsetInCU: 0x1E4FF, offset: 0x3AB95, size: 0x8, addend: 0x0, symName: __ZNSt3__16__treeINS_12__value_typeINS_12basic_stringIcNS_11char_traitsIcEENS_9allocatorIcEEEEP5ClassEENS_19__map_value_compareIS7_SA_NS_4lessIS7_EELb1EEENS5_ISA_EEE16__insert_node_atEPNS_15__tree_end_nodeIPNS_16__tree_node_baseIPvEEEERSL_SL_, symObjAddr: 0x7340, symBinAddr: 0x100019A10, symSize: 0xC0 }
  - { offsetInCU: 0x1E554, offset: 0x3ABEA, size: 0x8, addend: 0x0, symName: __ZNKSt3__110unique_ptrINS_11__tree_nodeINS_12__value_typeINS_12basic_stringIcNS_11char_traitsIcEENS_9allocatorIcEEEEP5ClassEEPvEENS_22__tree_node_destructorINS6_ISD_EEEEE3getB7v160006Ev, symObjAddr: 0x7400, symBinAddr: 0x100019AD0, symSize: 0x20 }
  - { offsetInCU: 0x1E57A, offset: 0x3AC10, size: 0x8, addend: 0x0, symName: __ZNSt3__110unique_ptrINS_11__tree_nodeINS_12__value_typeINS_12basic_stringIcNS_11char_traitsIcEENS_9allocatorIcEEEEP5ClassEEPvEENS_22__tree_node_destructorINS6_ISD_EEEEE7releaseB7v160006Ev, symObjAddr: 0x7420, symBinAddr: 0x100019AF0, symSize: 0x40 }
  - { offsetInCU: 0x1E5AF, offset: 0x3AC45, size: 0x8, addend: 0x0, symName: __ZNSt3__110unique_ptrINS_11__tree_nodeINS_12__value_typeINS_12basic_stringIcNS_11char_traitsIcEENS_9allocatorIcEEEEP5ClassEEPvEENS_22__tree_node_destructorINS6_ISD_EEEEED1B7v160006Ev, symObjAddr: 0x7460, symBinAddr: 0x100019B30, symSize: 0x20 }
  - { offsetInCU: 0x1E5D9, offset: 0x3AC6F, size: 0x8, addend: 0x0, symName: __ZNSt3__115__tree_iteratorINS_12__value_typeINS_12basic_stringIcNS_11char_traitsIcEENS_9allocatorIcEEEEP5ClassEEPNS_11__tree_nodeISA_PvEElEC1B7v160006ESE_, symObjAddr: 0x7480, symBinAddr: 0x100019B50, symSize: 0x30 }
  - { offsetInCU: 0x1E61C, offset: 0x3ACB2, size: 0x8, addend: 0x0, symName: __ZNSt3__14pairINS_15__tree_iteratorINS_12__value_typeINS_12basic_stringIcNS_11char_traitsIcEENS_9allocatorIcEEEEP5ClassEEPNS_11__tree_nodeISB_PvEElEEbEC1B7v160006ISG_RbLSD_0EEEOT_OT0_, symObjAddr: 0x74B0, symBinAddr: 0x100019B80, symSize: 0x30 }
  - { offsetInCU: 0x1E67A, offset: 0x3AD10, size: 0x8, addend: 0x0, symName: __ZNKSt3__16__treeINS_12__value_typeINS_12basic_stringIcNS_11char_traitsIcEENS_9allocatorIcEEEEP5ClassEENS_19__map_value_compareIS7_SA_NS_4lessIS7_EELb1EEENS5_ISA_EEE10__root_ptrEv, symObjAddr: 0x74E0, symBinAddr: 0x100019BB0, symSize: 0x20 }
  - { offsetInCU: 0x1E6A0, offset: 0x3AD36, size: 0x8, addend: 0x0, symName: __ZNSt3__16__treeINS_12__value_typeINS_12basic_stringIcNS_11char_traitsIcEENS_9allocatorIcEEEEP5ClassEENS_19__map_value_compareIS7_SA_NS_4lessIS7_EELb1EEENS5_ISA_EEE10value_compB7v160006Ev, symObjAddr: 0x7500, symBinAddr: 0x100019BD0, symSize: 0x20 }
  - { offsetInCU: 0x1E6C6, offset: 0x3AD5C, size: 0x8, addend: 0x0, symName: __ZNKSt3__119__map_value_compareINS_12basic_stringIcNS_11char_traitsIcEENS_9allocatorIcEEEENS_12__value_typeIS6_P5ClassEENS_4lessIS6_EELb1EEclB7v160006ERKS6_RKSA_, symObjAddr: 0x7520, symBinAddr: 0x100019BF0, symSize: 0x50 }
  - { offsetInCU: 0x1E70A, offset: 0x3ADA0, size: 0x8, addend: 0x0, symName: __ZNKSt3__119__map_value_compareINS_12basic_stringIcNS_11char_traitsIcEENS_9allocatorIcEEEENS_12__value_typeIS6_P5ClassEENS_4lessIS6_EELb1EEclB7v160006ERKSA_RKS6_, symObjAddr: 0x7570, symBinAddr: 0x100019C40, symSize: 0x40 }
  - { offsetInCU: 0x1E74E, offset: 0x3ADE4, size: 0x8, addend: 0x0, symName: __ZNSt3__117__compressed_pairImNS_19__map_value_compareINS_12basic_stringIcNS_11char_traitsIcEENS_9allocatorIcEEEENS_12__value_typeIS7_P5ClassEENS_4lessIS7_EELb1EEEE6secondB7v160006Ev, symObjAddr: 0x75B0, symBinAddr: 0x100019C80, symSize: 0x20 }
  - { offsetInCU: 0x1E774, offset: 0x3AE0A, size: 0x8, addend: 0x0, symName: __ZNSt3__122__compressed_pair_elemINS_19__map_value_compareINS_12basic_stringIcNS_11char_traitsIcEENS_9allocatorIcEEEENS_12__value_typeIS7_P5ClassEENS_4lessIS7_EELb1EEELi1ELb1EE5__getB7v160006Ev, symObjAddr: 0x75D0, symBinAddr: 0x100019CA0, symSize: 0x10 }
  - { offsetInCU: 0x1E79A, offset: 0x3AE30, size: 0x8, addend: 0x0, symName: __ZNKSt3__14lessINS_12basic_stringIcNS_11char_traitsIcEENS_9allocatorIcEEEEEclB7v160006ERKS6_S9_, symObjAddr: 0x75E0, symBinAddr: 0x100019CB0, symSize: 0x30 }
  - { offsetInCU: 0x1E7DE, offset: 0x3AE74, size: 0x8, addend: 0x0, symName: __ZNKSt3__112__value_typeINS_12basic_stringIcNS_11char_traitsIcEENS_9allocatorIcEEEEP5ClassE11__get_valueB7v160006Ev, symObjAddr: 0x7610, symBinAddr: 0x100019CE0, symSize: 0x10 }
  - { offsetInCU: 0x1E804, offset: 0x3AE9A, size: 0x8, addend: 0x0, symName: __ZNKSt3__112basic_stringIcNS_11char_traitsIcEENS_9allocatorIcEEE7compareB7v160006ERKS5_, symObjAddr: 0x7650, symBinAddr: 0x100019D20, symSize: 0x40 }
  - { offsetInCU: 0x1E83B, offset: 0x3AED1, size: 0x8, addend: 0x0, symName: __ZNKSt3__112basic_stringIcNS_11char_traitsIcEENS_9allocatorIcEEE7compareINS_17basic_string_viewIcS2_EEEENS_9enable_ifIXsr33__can_be_converted_to_string_viewIcS2_T_EE5valueEiE4typeERKSA_, symObjAddr: 0x7690, symBinAddr: 0x100019D60, symSize: 0xF0 }
  - { offsetInCU: 0x1E8B8, offset: 0x3AF4E, size: 0x8, addend: 0x0, symName: __ZNKSt3__112basic_stringIcNS_11char_traitsIcEENS_9allocatorIcEEEcvNS_17basic_string_viewIcS2_EEB7v160006Ev, symObjAddr: 0x7780, symBinAddr: 0x100019E50, symSize: 0x50 }
  - { offsetInCU: 0x1E8DE, offset: 0x3AF74, size: 0x8, addend: 0x0, symName: __ZNKSt3__117basic_string_viewIcNS_11char_traitsIcEEE4sizeB7v160006Ev, symObjAddr: 0x77D0, symBinAddr: 0x100019EA0, symSize: 0x20 }
  - { offsetInCU: 0x1E904, offset: 0x3AF9A, size: 0x8, addend: 0x0, symName: __ZNSt3__111char_traitsIcE7compareEPKcS3_m, symObjAddr: 0x77F0, symBinAddr: 0x100019EC0, symSize: 0x60 }
  - { offsetInCU: 0x1E943, offset: 0x3AFD9, size: 0x8, addend: 0x0, symName: __ZNKSt3__117basic_string_viewIcNS_11char_traitsIcEEE4dataB7v160006Ev, symObjAddr: 0x7850, symBinAddr: 0x100019F20, symSize: 0x20 }
  - { offsetInCU: 0x1E969, offset: 0x3AFFF, size: 0x8, addend: 0x0, symName: __ZNSt3__117basic_string_viewIcNS_11char_traitsIcEEEC1B7v160006EPKcm, symObjAddr: 0x7950, symBinAddr: 0x100019F70, symSize: 0x30 }
  - { offsetInCU: 0x1E9B1, offset: 0x3B047, size: 0x8, addend: 0x0, symName: __ZNSt3__117basic_string_viewIcNS_11char_traitsIcEEEC2B7v160006EPKcm, symObjAddr: 0x7980, symBinAddr: 0x100019FA0, symSize: 0x50 }
  - { offsetInCU: 0x1E9F9, offset: 0x3B08F, size: 0x8, addend: 0x0, symName: __ZNSt3__116allocator_traitsINS_9allocatorINS_11__tree_nodeINS_12__value_typeINS_12basic_stringIcNS_11char_traitsIcEENS1_IcEEEEP5ClassEEPvEEEEE8allocateB7v160006ERSE_m, symObjAddr: 0x79D0, symBinAddr: 0x100019FF0, symSize: 0x30 }
  - { offsetInCU: 0x1EA2C, offset: 0x3B0C2, size: 0x8, addend: 0x0, symName: __ZNSt3__122__tree_node_destructorINS_9allocatorINS_11__tree_nodeINS_12__value_typeINS_12basic_stringIcNS_11char_traitsIcEENS1_IcEEEEP5ClassEEPvEEEEEC1B7v160006ERSE_b, symObjAddr: 0x7A00, symBinAddr: 0x10001A020, symSize: 0x40 }
  - { offsetInCU: 0x1EA79, offset: 0x3B10F, size: 0x8, addend: 0x0, symName: __ZNSt3__110unique_ptrINS_11__tree_nodeINS_12__value_typeINS_12basic_stringIcNS_11char_traitsIcEENS_9allocatorIcEEEEP5ClassEEPvEENS_22__tree_node_destructorINS6_ISD_EEEEEC1B7v160006ILb1EvEEPSD_NS_16__dependent_typeINS_27__unique_ptr_deleter_sfinaeISG_EEXT_EE20__good_rval_ref_typeE, symObjAddr: 0x7A40, symBinAddr: 0x10001A060, symSize: 0x30 }
  - { offsetInCU: 0x1EACA, offset: 0x3B160, size: 0x8, addend: 0x0, symName: __ZNSt3__116allocator_traitsINS_9allocatorINS_11__tree_nodeINS_12__value_typeINS_12basic_stringIcNS_11char_traitsIcEENS1_IcEEEEP5ClassEEPvEEEEE9constructB7v160006INS_4pairIKS8_SA_EEJRKNS_21piecewise_construct_tENS_5tupleIJRSI_EEENSN_IJEEEEvEEvRSE_PT_DpOT0_, symObjAddr: 0x7A70, symBinAddr: 0x10001A090, symSize: 0x40 }
  - { offsetInCU: 0x1EB49, offset: 0x3B1DF, size: 0x8, addend: 0x0, symName: __ZNKSt3__110unique_ptrINS_11__tree_nodeINS_12__value_typeINS_12basic_stringIcNS_11char_traitsIcEENS_9allocatorIcEEEEP5ClassEEPvEENS_22__tree_node_destructorINS6_ISD_EEEEEptB7v160006Ev, symObjAddr: 0x7AB0, symBinAddr: 0x10001A0D0, symSize: 0x20 }
  - { offsetInCU: 0x1EB6F, offset: 0x3B205, size: 0x8, addend: 0x0, symName: __ZNSt3__110unique_ptrINS_11__tree_nodeINS_12__value_typeINS_12basic_stringIcNS_11char_traitsIcEENS_9allocatorIcEEEEP5ClassEEPvEENS_22__tree_node_destructorINS6_ISD_EEEEE11get_deleterB7v160006Ev, symObjAddr: 0x7AD0, symBinAddr: 0x10001A0F0, symSize: 0x20 }
  - { offsetInCU: 0x1EB95, offset: 0x3B22B, size: 0x8, addend: 0x0, symName: __ZNSt3__19allocatorINS_11__tree_nodeINS_12__value_typeINS_12basic_stringIcNS_11char_traitsIcEENS0_IcEEEEP5ClassEEPvEEE8allocateB7v160006Em, symObjAddr: 0x7AF0, symBinAddr: 0x10001A110, symSize: 0x50 }
  - { offsetInCU: 0x1EBD3, offset: 0x3B269, size: 0x8, addend: 0x0, symName: __ZNSt3__116allocator_traitsINS_9allocatorINS_11__tree_nodeINS_12__value_typeINS_12basic_stringIcNS_11char_traitsIcEENS1_IcEEEEP5ClassEEPvEEEEE8max_sizeB7v160006ISE_vEEmRKSE_, symObjAddr: 0x7B40, symBinAddr: 0x10001A160, symSize: 0x20 }
  - { offsetInCU: 0x1EC01, offset: 0x3B297, size: 0x8, addend: 0x0, symName: __ZNKSt3__19allocatorINS_11__tree_nodeINS_12__value_typeINS_12basic_stringIcNS_11char_traitsIcEENS0_IcEEEEP5ClassEEPvEEE8max_sizeB7v160006Ev, symObjAddr: 0x7B60, symBinAddr: 0x10001A180, symSize: 0x20 }
  - { offsetInCU: 0x1EC27, offset: 0x3B2BD, size: 0x8, addend: 0x0, symName: __ZNSt3__122__tree_node_destructorINS_9allocatorINS_11__tree_nodeINS_12__value_typeINS_12basic_stringIcNS_11char_traitsIcEENS1_IcEEEEP5ClassEEPvEEEEEC2B7v160006ERSE_b, symObjAddr: 0x7B80, symBinAddr: 0x10001A1A0, symSize: 0x30 }
  - { offsetInCU: 0x1EC6F, offset: 0x3B305, size: 0x8, addend: 0x0, symName: __ZNSt3__110unique_ptrINS_11__tree_nodeINS_12__value_typeINS_12basic_stringIcNS_11char_traitsIcEENS_9allocatorIcEEEEP5ClassEEPvEENS_22__tree_node_destructorINS6_ISD_EEEEEC2B7v160006ILb1EvEEPSD_NS_16__dependent_typeINS_27__unique_ptr_deleter_sfinaeISG_EEXT_EE20__good_rval_ref_typeE, symObjAddr: 0x7BB0, symBinAddr: 0x10001A1D0, symSize: 0x40 }
  - { offsetInCU: 0x1ECC0, offset: 0x3B356, size: 0x8, addend: 0x0, symName: __ZNSt3__117__compressed_pairIPNS_11__tree_nodeINS_12__value_typeINS_12basic_stringIcNS_11char_traitsIcEENS_9allocatorIcEEEEP5ClassEEPvEENS_22__tree_node_destructorINS6_ISD_EEEEEC1B7v160006IRSE_SH_EEOT_OT0_, symObjAddr: 0x7BF0, symBinAddr: 0x10001A210, symSize: 0x30 }
  - { offsetInCU: 0x1ED18, offset: 0x3B3AE, size: 0x8, addend: 0x0, symName: __ZNSt3__117__compressed_pairIPNS_11__tree_nodeINS_12__value_typeINS_12basic_stringIcNS_11char_traitsIcEENS_9allocatorIcEEEEP5ClassEEPvEENS_22__tree_node_destructorINS6_ISD_EEEEEC2B7v160006IRSE_SH_EEOT_OT0_, symObjAddr: 0x7C20, symBinAddr: 0x10001A240, symSize: 0x40 }
  - { offsetInCU: 0x1ED70, offset: 0x3B406, size: 0x8, addend: 0x0, symName: __ZNSt3__122__compressed_pair_elemIPNS_11__tree_nodeINS_12__value_typeINS_12basic_stringIcNS_11char_traitsIcEENS_9allocatorIcEEEEP5ClassEEPvEELi0ELb0EEC2B7v160006IRSE_vEEOT_, symObjAddr: 0x7C60, symBinAddr: 0x10001A280, symSize: 0x20 }
  - { offsetInCU: 0x1EDB2, offset: 0x3B448, size: 0x8, addend: 0x0, symName: __ZNSt3__122__compressed_pair_elemINS_22__tree_node_destructorINS_9allocatorINS_11__tree_nodeINS_12__value_typeINS_12basic_stringIcNS_11char_traitsIcEENS2_IcEEEEP5ClassEEPvEEEEEELi1ELb0EEC2B7v160006ISG_vEEOT_, symObjAddr: 0x7C80, symBinAddr: 0x10001A2A0, symSize: 0x30 }
  - { offsetInCU: 0x1EDF4, offset: 0x3B48A, size: 0x8, addend: 0x0, symName: __ZNSt3__19allocatorINS_11__tree_nodeINS_12__value_typeINS_12basic_stringIcNS_11char_traitsIcEENS0_IcEEEEP5ClassEEPvEEE9constructB7v160006INS_4pairIKS7_S9_EEJRKNS_21piecewise_construct_tENS_5tupleIJRSG_EEENSL_IJEEEEEEvPT_DpOT0_, symObjAddr: 0x7CB0, symBinAddr: 0x10001A2D0, symSize: 0x40 }
  - { offsetInCU: 0x1EE70, offset: 0x3B506, size: 0x8, addend: 0x0, symName: __ZNSt3__14pairIKNS_12basic_stringIcNS_11char_traitsIcEENS_9allocatorIcEEEEP5ClassEC1B7v160006IJRS7_EJEEENS_21piecewise_construct_tENS_5tupleIJDpT_EEENSE_IJDpT0_EEE, symObjAddr: 0x7CF0, symBinAddr: 0x10001A310, symSize: 0x30 }
  - { offsetInCU: 0x1EED7, offset: 0x3B56D, size: 0x8, addend: 0x0, symName: __ZNSt3__14pairIKNS_12basic_stringIcNS_11char_traitsIcEENS_9allocatorIcEEEEP5ClassEC1B7v160006IJRS7_EJEJLm0EEJEEENS_21piecewise_construct_tERNS_5tupleIJDpT_EEERNSE_IJDpT0_EEENS_15__tuple_indicesIJXspT1_EEEENSN_IJXspT2_EEEE, symObjAddr: 0x7D20, symBinAddr: 0x10001A340, symSize: 0x30 }
  - { offsetInCU: 0x1EF67, offset: 0x3B5FD, size: 0x8, addend: 0x0, symName: __ZNSt3__14pairIKNS_12basic_stringIcNS_11char_traitsIcEENS_9allocatorIcEEEEP5ClassEC2B7v160006IJRS7_EJEJLm0EEJEEENS_21piecewise_construct_tERNS_5tupleIJDpT_EEERNSE_IJDpT0_EEENS_15__tuple_indicesIJXspT1_EEEENSN_IJXspT2_EEEE, symObjAddr: 0x7D50, symBinAddr: 0x10001A370, symSize: 0x50 }
  - { offsetInCU: 0x1EFF7, offset: 0x3B68D, size: 0x8, addend: 0x0, symName: __ZNSt3__112__tuple_leafILm0ERKNS_12basic_stringIcNS_11char_traitsIcEENS_9allocatorIcEEEELb0EE3getB7v160006Ev, symObjAddr: 0x7DC0, symBinAddr: 0x10001A3E0, symSize: 0x20 }
  - { offsetInCU: 0x1F01D, offset: 0x3B6B3, size: 0x8, addend: 0x0, symName: __ZNKSt3__117__compressed_pairIPNS_11__tree_nodeINS_12__value_typeINS_12basic_stringIcNS_11char_traitsIcEENS_9allocatorIcEEEEP5ClassEEPvEENS_22__tree_node_destructorINS6_ISD_EEEEE5firstB7v160006Ev, symObjAddr: 0x7DE0, symBinAddr: 0x10001A400, symSize: 0x20 }
  - { offsetInCU: 0x1F043, offset: 0x3B6D9, size: 0x8, addend: 0x0, symName: __ZNKSt3__122__compressed_pair_elemIPNS_11__tree_nodeINS_12__value_typeINS_12basic_stringIcNS_11char_traitsIcEENS_9allocatorIcEEEEP5ClassEEPvEELi0ELb0EE5__getB7v160006Ev, symObjAddr: 0x7E00, symBinAddr: 0x10001A420, symSize: 0x10 }
  - { offsetInCU: 0x1F069, offset: 0x3B6FF, size: 0x8, addend: 0x0, symName: __ZNSt3__117__compressed_pairIPNS_11__tree_nodeINS_12__value_typeINS_12basic_stringIcNS_11char_traitsIcEENS_9allocatorIcEEEEP5ClassEEPvEENS_22__tree_node_destructorINS6_ISD_EEEEE6secondB7v160006Ev, symObjAddr: 0x7E10, symBinAddr: 0x10001A430, symSize: 0x20 }
  - { offsetInCU: 0x1F08F, offset: 0x3B725, size: 0x8, addend: 0x0, symName: __ZNSt3__122__compressed_pair_elemINS_22__tree_node_destructorINS_9allocatorINS_11__tree_nodeINS_12__value_typeINS_12basic_stringIcNS_11char_traitsIcEENS2_IcEEEEP5ClassEEPvEEEEEELi1ELb0EE5__getB7v160006Ev, symObjAddr: 0x7E30, symBinAddr: 0x10001A450, symSize: 0x10 }
  - { offsetInCU: 0x1F0B5, offset: 0x3B74B, size: 0x8, addend: 0x0, symName: __ZNSt3__16__treeINS_12__value_typeINS_12basic_stringIcNS_11char_traitsIcEENS_9allocatorIcEEEEP5ClassEENS_19__map_value_compareIS7_SA_NS_4lessIS7_EELb1EEENS5_ISA_EEE4sizeB7v160006Ev, symObjAddr: 0x8160, symBinAddr: 0x10001A780, symSize: 0x20 }
  - { offsetInCU: 0x1F0DB, offset: 0x3B771, size: 0x8, addend: 0x0, symName: __ZNKSt3__116__tree_node_baseIPvE15__parent_unsafeB7v160006Ev, symObjAddr: 0x8180, symBinAddr: 0x10001A7A0, symSize: 0x20 }
  - { offsetInCU: 0x1F101, offset: 0x3B797, size: 0x8, addend: 0x0, symName: __ZNSt3__116__tree_node_baseIPvE12__set_parentB7v160006EPS2_, symObjAddr: 0x8360, symBinAddr: 0x10001A980, symSize: 0x20 }
  - { offsetInCU: 0x1F136, offset: 0x3B7CC, size: 0x8, addend: 0x0, symName: __ZNSt3__117__compressed_pairImNS_19__map_value_compareINS_12basic_stringIcNS_11char_traitsIcEENS_9allocatorIcEEEENS_12__value_typeIS7_P5ClassEENS_4lessIS7_EELb1EEEE5firstB7v160006Ev, symObjAddr: 0x8380, symBinAddr: 0x10001A9A0, symSize: 0x20 }
  - { offsetInCU: 0x1F15C, offset: 0x3B7F2, size: 0x8, addend: 0x0, symName: __ZNSt3__117__compressed_pairIPNS_11__tree_nodeINS_12__value_typeINS_12basic_stringIcNS_11char_traitsIcEENS_9allocatorIcEEEEP5ClassEEPvEENS_22__tree_node_destructorINS6_ISD_EEEEE5firstB7v160006Ev, symObjAddr: 0x83A0, symBinAddr: 0x10001A9C0, symSize: 0x20 }
  - { offsetInCU: 0x1F182, offset: 0x3B818, size: 0x8, addend: 0x0, symName: __ZNSt3__122__compressed_pair_elemIPNS_11__tree_nodeINS_12__value_typeINS_12basic_stringIcNS_11char_traitsIcEENS_9allocatorIcEEEEP5ClassEEPvEELi0ELb0EE5__getB7v160006Ev, symObjAddr: 0x83C0, symBinAddr: 0x10001A9E0, symSize: 0x10 }
  - { offsetInCU: 0x1F1A8, offset: 0x3B83E, size: 0x8, addend: 0x0, symName: __ZNSt3__110unique_ptrINS_11__tree_nodeINS_12__value_typeINS_12basic_stringIcNS_11char_traitsIcEENS_9allocatorIcEEEEP5ClassEEPvEENS_22__tree_node_destructorINS6_ISD_EEEEED2B7v160006Ev, symObjAddr: 0x83D0, symBinAddr: 0x10001A9F0, symSize: 0x20 }
  - { offsetInCU: 0x1F1D2, offset: 0x3B868, size: 0x8, addend: 0x0, symName: __ZNSt3__110unique_ptrINS_11__tree_nodeINS_12__value_typeINS_12basic_stringIcNS_11char_traitsIcEENS_9allocatorIcEEEEP5ClassEEPvEENS_22__tree_node_destructorINS6_ISD_EEEEE5resetB7v160006EPSD_, symObjAddr: 0x83F0, symBinAddr: 0x10001AA10, symSize: 0x70 }
  - { offsetInCU: 0x1F216, offset: 0x3B8AC, size: 0x8, addend: 0x0, symName: __ZNSt3__122__tree_node_destructorINS_9allocatorINS_11__tree_nodeINS_12__value_typeINS_12basic_stringIcNS_11char_traitsIcEENS1_IcEEEEP5ClassEEPvEEEEEclB7v160006EPSD_, symObjAddr: 0x8460, symBinAddr: 0x10001AA80, symSize: 0x80 }
  - { offsetInCU: 0x1F24B, offset: 0x3B8E1, size: 0x8, addend: 0x0, symName: __ZNSt3__115__tree_iteratorINS_12__value_typeINS_12basic_stringIcNS_11char_traitsIcEENS_9allocatorIcEEEEP5ClassEEPNS_11__tree_nodeISA_PvEElEC2B7v160006ESE_, symObjAddr: 0x84E0, symBinAddr: 0x10001AB00, symSize: 0x20 }
  - { offsetInCU: 0x1F284, offset: 0x3B91A, size: 0x8, addend: 0x0, symName: __ZNSt3__14pairINS_15__tree_iteratorINS_12__value_typeINS_12basic_stringIcNS_11char_traitsIcEENS_9allocatorIcEEEEP5ClassEEPNS_11__tree_nodeISB_PvEElEEbEC2B7v160006ISG_RbLSD_0EEEOT_OT0_, symObjAddr: 0x8500, symBinAddr: 0x10001AB20, symSize: 0x30 }
  - { offsetInCU: 0x1F2E2, offset: 0x3B978, size: 0x8, addend: 0x0, symName: __ZNSt3__15tupleIJRKNS_12basic_stringIcNS_11char_traitsIcEENS_9allocatorIcEEEEEEC1B7v160006INS_4_AndELi0EEES8_, symObjAddr: 0x8530, symBinAddr: 0x10001AB50, symSize: 0x30 }
  - { offsetInCU: 0x1F32C, offset: 0x3B9C2, size: 0x8, addend: 0x0, symName: __ZNSt3__15tupleIJRKNS_12basic_stringIcNS_11char_traitsIcEENS_9allocatorIcEEEEEEC2B7v160006INS_4_AndELi0EEES8_, symObjAddr: 0x8560, symBinAddr: 0x10001AB80, symSize: 0x30 }
  - { offsetInCU: 0x1F376, offset: 0x3BA0C, size: 0x8, addend: 0x0, symName: __ZNSt3__112__tuple_implINS_15__tuple_indicesIJLm0EEEEJRKNS_12basic_stringIcNS_11char_traitsIcEENS_9allocatorIcEEEEEEC1B7v160006IJLm0EEJSA_EJEJEJSA_EEENS1_IJXspT_EEEENS_13__tuple_typesIJDpT0_EEENS1_IJXspT1_EEEENSE_IJDpT2_EEEDpOT3_, symObjAddr: 0x8590, symBinAddr: 0x10001ABB0, symSize: 0x30 }
  - { offsetInCU: 0x1F40B, offset: 0x3BAA1, size: 0x8, addend: 0x0, symName: __ZNSt3__112__tuple_implINS_15__tuple_indicesIJLm0EEEEJRKNS_12basic_stringIcNS_11char_traitsIcEENS_9allocatorIcEEEEEEC2B7v160006IJLm0EEJSA_EJEJEJSA_EEENS1_IJXspT_EEEENS_13__tuple_typesIJDpT0_EEENS1_IJXspT1_EEEENSE_IJDpT2_EEEDpOT3_, symObjAddr: 0x85C0, symBinAddr: 0x10001ABE0, symSize: 0x30 }
  - { offsetInCU: 0x1F4A0, offset: 0x3BB36, size: 0x8, addend: 0x0, symName: __ZNSt3__112__tuple_leafILm0ERKNS_12basic_stringIcNS_11char_traitsIcEENS_9allocatorIcEEEELb0EEC2B7v160006IS8_vEEOT_, symObjAddr: 0x85F0, symBinAddr: 0x10001AC10, symSize: 0x20 }
  - { offsetInCU: 0x1F4E3, offset: 0x3BB79, size: 0x8, addend: 0x0, symName: __ZNSt3__114pointer_traitsIPNS_12__value_typeINS_12basic_stringIcNS_11char_traitsIcEENS_9allocatorIcEEEEP5ClassEEE10pointer_toB7v160006ERSA_, symObjAddr: 0x8610, symBinAddr: 0x10001AC30, symSize: 0x10 }
  - { offsetInCU: 0x1F506, offset: 0x3BB9C, size: 0x8, addend: 0x0, symName: __ZNKSt3__115__tree_iteratorINS_12__value_typeINS_12basic_stringIcNS_11char_traitsIcEENS_9allocatorIcEEEEP5ClassEEPNS_11__tree_nodeISA_PvEElE8__get_npB7v160006Ev, symObjAddr: 0x8620, symBinAddr: 0x10001AC40, symSize: 0x20 }
  - { offsetInCU: 0x1F52C, offset: 0x3BBC2, size: 0x8, addend: 0x0, symName: __ZNSt3__16__treeINS_12__value_typeINS_12basic_stringIcNS_11char_traitsIcEENS_9allocatorIcEEEEP6MethodEENS_19__map_value_compareIS7_SA_NS_4lessIS7_EELb1EEENS5_ISA_EEE25__emplace_unique_key_argsIS7_JRKNS_21piecewise_construct_tENS_5tupleIJRKS7_EEENSL_IJEEEEEENS_4pairINS_15__tree_iteratorISA_PNS_11__tree_nodeISA_PvEElEEbEERKT_DpOT0_, symObjAddr: 0x8640, symBinAddr: 0x10001AC60, symSize: 0x100 }
  - { offsetInCU: 0x1F60C, offset: 0x3BCA2, size: 0x8, addend: 0x0, symName: __ZNKSt3__115__tree_iteratorINS_12__value_typeINS_12basic_stringIcNS_11char_traitsIcEENS_9allocatorIcEEEEP6MethodEEPNS_11__tree_nodeISA_PvEElEptB7v160006Ev, symObjAddr: 0x8740, symBinAddr: 0x10001AD60, symSize: 0x30 }
  - { offsetInCU: 0x1F632, offset: 0x3BCC8, size: 0x8, addend: 0x0, symName: __ZNSt3__16__treeINS_12__value_typeINS_12basic_stringIcNS_11char_traitsIcEENS_9allocatorIcEEEEP6MethodEENS_19__map_value_compareIS7_SA_NS_4lessIS7_EELb1EEENS5_ISA_EEE12__find_equalIS7_EERPNS_16__tree_node_baseIPvEERPNS_15__tree_end_nodeISL_EERKT_, symObjAddr: 0x8770, symBinAddr: 0x10001AD90, symSize: 0x180 }
  - { offsetInCU: 0x1F69F, offset: 0x3BD35, size: 0x8, addend: 0x0, symName: __ZNSt3__16__treeINS_12__value_typeINS_12basic_stringIcNS_11char_traitsIcEENS_9allocatorIcEEEEP6MethodEENS_19__map_value_compareIS7_SA_NS_4lessIS7_EELb1EEENS5_ISA_EEE16__construct_nodeIJRKNS_21piecewise_construct_tENS_5tupleIJRKS7_EEENSL_IJEEEEEENS_10unique_ptrINS_11__tree_nodeISA_PvEENS_22__tree_node_destructorINS5_IST_EEEEEEDpOT_, symObjAddr: 0x88F0, symBinAddr: 0x10001AF10, symSize: 0x120 }
  - { offsetInCU: 0x1F728, offset: 0x3BDBE, size: 0x8, addend: 0x0, symName: __ZNSt3__16__treeINS_12__value_typeINS_12basic_stringIcNS_11char_traitsIcEENS_9allocatorIcEEEEP6MethodEENS_19__map_value_compareIS7_SA_NS_4lessIS7_EELb1EEENS5_ISA_EEE16__insert_node_atEPNS_15__tree_end_nodeIPNS_16__tree_node_baseIPvEEEERSL_SL_, symObjAddr: 0x8A10, symBinAddr: 0x10001B030, symSize: 0xC0 }
  - { offsetInCU: 0x1F77D, offset: 0x3BE13, size: 0x8, addend: 0x0, symName: __ZNKSt3__110unique_ptrINS_11__tree_nodeINS_12__value_typeINS_12basic_stringIcNS_11char_traitsIcEENS_9allocatorIcEEEEP6MethodEEPvEENS_22__tree_node_destructorINS6_ISD_EEEEE3getB7v160006Ev, symObjAddr: 0x8AD0, symBinAddr: 0x10001B0F0, symSize: 0x20 }
  - { offsetInCU: 0x1F7A3, offset: 0x3BE39, size: 0x8, addend: 0x0, symName: __ZNSt3__110unique_ptrINS_11__tree_nodeINS_12__value_typeINS_12basic_stringIcNS_11char_traitsIcEENS_9allocatorIcEEEEP6MethodEEPvEENS_22__tree_node_destructorINS6_ISD_EEEEE7releaseB7v160006Ev, symObjAddr: 0x8AF0, symBinAddr: 0x10001B110, symSize: 0x40 }
  - { offsetInCU: 0x1F7D8, offset: 0x3BE6E, size: 0x8, addend: 0x0, symName: __ZNSt3__110unique_ptrINS_11__tree_nodeINS_12__value_typeINS_12basic_stringIcNS_11char_traitsIcEENS_9allocatorIcEEEEP6MethodEEPvEENS_22__tree_node_destructorINS6_ISD_EEEEED1B7v160006Ev, symObjAddr: 0x8B30, symBinAddr: 0x10001B150, symSize: 0x20 }
  - { offsetInCU: 0x1F802, offset: 0x3BE98, size: 0x8, addend: 0x0, symName: __ZNSt3__115__tree_iteratorINS_12__value_typeINS_12basic_stringIcNS_11char_traitsIcEENS_9allocatorIcEEEEP6MethodEEPNS_11__tree_nodeISA_PvEElEC1B7v160006ESE_, symObjAddr: 0x8B50, symBinAddr: 0x10001B170, symSize: 0x30 }
  - { offsetInCU: 0x1F840, offset: 0x3BED6, size: 0x8, addend: 0x0, symName: __ZNSt3__14pairINS_15__tree_iteratorINS_12__value_typeINS_12basic_stringIcNS_11char_traitsIcEENS_9allocatorIcEEEEP6MethodEEPNS_11__tree_nodeISB_PvEElEEbEC1B7v160006ISG_RbLSD_0EEEOT_OT0_, symObjAddr: 0x8B80, symBinAddr: 0x10001B1A0, symSize: 0x30 }
  - { offsetInCU: 0x1F89E, offset: 0x3BF34, size: 0x8, addend: 0x0, symName: __ZNKSt3__16__treeINS_12__value_typeINS_12basic_stringIcNS_11char_traitsIcEENS_9allocatorIcEEEEP6MethodEENS_19__map_value_compareIS7_SA_NS_4lessIS7_EELb1EEENS5_ISA_EEE10__root_ptrEv, symObjAddr: 0x8BB0, symBinAddr: 0x10001B1D0, symSize: 0x20 }
  - { offsetInCU: 0x1F8C4, offset: 0x3BF5A, size: 0x8, addend: 0x0, symName: __ZNSt3__16__treeINS_12__value_typeINS_12basic_stringIcNS_11char_traitsIcEENS_9allocatorIcEEEEP6MethodEENS_19__map_value_compareIS7_SA_NS_4lessIS7_EELb1EEENS5_ISA_EEE10value_compB7v160006Ev, symObjAddr: 0x8BD0, symBinAddr: 0x10001B1F0, symSize: 0x20 }
  - { offsetInCU: 0x1F8EA, offset: 0x3BF80, size: 0x8, addend: 0x0, symName: __ZNKSt3__119__map_value_compareINS_12basic_stringIcNS_11char_traitsIcEENS_9allocatorIcEEEENS_12__value_typeIS6_P6MethodEENS_4lessIS6_EELb1EEclB7v160006ERKS6_RKSA_, symObjAddr: 0x8BF0, symBinAddr: 0x10001B210, symSize: 0x50 }
  - { offsetInCU: 0x1F92E, offset: 0x3BFC4, size: 0x8, addend: 0x0, symName: __ZNKSt3__119__map_value_compareINS_12basic_stringIcNS_11char_traitsIcEENS_9allocatorIcEEEENS_12__value_typeIS6_P6MethodEENS_4lessIS6_EELb1EEclB7v160006ERKSA_RKS6_, symObjAddr: 0x8C40, symBinAddr: 0x10001B260, symSize: 0x40 }
  - { offsetInCU: 0x1F972, offset: 0x3C008, size: 0x8, addend: 0x0, symName: __ZNSt3__117__compressed_pairImNS_19__map_value_compareINS_12basic_stringIcNS_11char_traitsIcEENS_9allocatorIcEEEENS_12__value_typeIS7_P6MethodEENS_4lessIS7_EELb1EEEE6secondB7v160006Ev, symObjAddr: 0x8C80, symBinAddr: 0x10001B2A0, symSize: 0x20 }
  - { offsetInCU: 0x1F998, offset: 0x3C02E, size: 0x8, addend: 0x0, symName: __ZNSt3__122__compressed_pair_elemINS_19__map_value_compareINS_12basic_stringIcNS_11char_traitsIcEENS_9allocatorIcEEEENS_12__value_typeIS7_P6MethodEENS_4lessIS7_EELb1EEELi1ELb1EE5__getB7v160006Ev, symObjAddr: 0x8CA0, symBinAddr: 0x10001B2C0, symSize: 0x10 }
  - { offsetInCU: 0x1F9BE, offset: 0x3C054, size: 0x8, addend: 0x0, symName: __ZNKSt3__112__value_typeINS_12basic_stringIcNS_11char_traitsIcEENS_9allocatorIcEEEEP6MethodE11__get_valueB7v160006Ev, symObjAddr: 0x8CB0, symBinAddr: 0x10001B2D0, symSize: 0x10 }
  - { offsetInCU: 0x1F9E4, offset: 0x3C07A, size: 0x8, addend: 0x0, symName: __ZNSt3__116allocator_traitsINS_9allocatorINS_11__tree_nodeINS_12__value_typeINS_12basic_stringIcNS_11char_traitsIcEENS1_IcEEEEP6MethodEEPvEEEEE8allocateB7v160006ERSE_m, symObjAddr: 0x8CC0, symBinAddr: 0x10001B2E0, symSize: 0x30 }
  - { offsetInCU: 0x1FA17, offset: 0x3C0AD, size: 0x8, addend: 0x0, symName: __ZNSt3__122__tree_node_destructorINS_9allocatorINS_11__tree_nodeINS_12__value_typeINS_12basic_stringIcNS_11char_traitsIcEENS1_IcEEEEP6MethodEEPvEEEEEC1B7v160006ERSE_b, symObjAddr: 0x8CF0, symBinAddr: 0x10001B310, symSize: 0x40 }
  - { offsetInCU: 0x1FA64, offset: 0x3C0FA, size: 0x8, addend: 0x0, symName: __ZNSt3__110unique_ptrINS_11__tree_nodeINS_12__value_typeINS_12basic_stringIcNS_11char_traitsIcEENS_9allocatorIcEEEEP6MethodEEPvEENS_22__tree_node_destructorINS6_ISD_EEEEEC1B7v160006ILb1EvEEPSD_NS_16__dependent_typeINS_27__unique_ptr_deleter_sfinaeISG_EEXT_EE20__good_rval_ref_typeE, symObjAddr: 0x8D30, symBinAddr: 0x10001B350, symSize: 0x30 }
  - { offsetInCU: 0x1FAB5, offset: 0x3C14B, size: 0x8, addend: 0x0, symName: __ZNSt3__116allocator_traitsINS_9allocatorINS_11__tree_nodeINS_12__value_typeINS_12basic_stringIcNS_11char_traitsIcEENS1_IcEEEEP6MethodEEPvEEEEE9constructB7v160006INS_4pairIKS8_SA_EEJRKNS_21piecewise_construct_tENS_5tupleIJRSI_EEENSN_IJEEEEvEEvRSE_PT_DpOT0_, symObjAddr: 0x8D60, symBinAddr: 0x10001B380, symSize: 0x40 }
  - { offsetInCU: 0x1FB34, offset: 0x3C1CA, size: 0x8, addend: 0x0, symName: __ZNKSt3__110unique_ptrINS_11__tree_nodeINS_12__value_typeINS_12basic_stringIcNS_11char_traitsIcEENS_9allocatorIcEEEEP6MethodEEPvEENS_22__tree_node_destructorINS6_ISD_EEEEEptB7v160006Ev, symObjAddr: 0x8DA0, symBinAddr: 0x10001B3C0, symSize: 0x20 }
  - { offsetInCU: 0x1FB5A, offset: 0x3C1F0, size: 0x8, addend: 0x0, symName: __ZNSt3__110unique_ptrINS_11__tree_nodeINS_12__value_typeINS_12basic_stringIcNS_11char_traitsIcEENS_9allocatorIcEEEEP6MethodEEPvEENS_22__tree_node_destructorINS6_ISD_EEEEE11get_deleterB7v160006Ev, symObjAddr: 0x8DC0, symBinAddr: 0x10001B3E0, symSize: 0x20 }
  - { offsetInCU: 0x1FB80, offset: 0x3C216, size: 0x8, addend: 0x0, symName: __ZNSt3__19allocatorINS_11__tree_nodeINS_12__value_typeINS_12basic_stringIcNS_11char_traitsIcEENS0_IcEEEEP6MethodEEPvEEE8allocateB7v160006Em, symObjAddr: 0x8DE0, symBinAddr: 0x10001B400, symSize: 0x50 }
  - { offsetInCU: 0x1FBBE, offset: 0x3C254, size: 0x8, addend: 0x0, symName: __ZNSt3__116allocator_traitsINS_9allocatorINS_11__tree_nodeINS_12__value_typeINS_12basic_stringIcNS_11char_traitsIcEENS1_IcEEEEP6MethodEEPvEEEEE8max_sizeB7v160006ISE_vEEmRKSE_, symObjAddr: 0x8E30, symBinAddr: 0x10001B450, symSize: 0x20 }
  - { offsetInCU: 0x1FBEC, offset: 0x3C282, size: 0x8, addend: 0x0, symName: __ZNKSt3__19allocatorINS_11__tree_nodeINS_12__value_typeINS_12basic_stringIcNS_11char_traitsIcEENS0_IcEEEEP6MethodEEPvEEE8max_sizeB7v160006Ev, symObjAddr: 0x8E50, symBinAddr: 0x10001B470, symSize: 0x20 }
  - { offsetInCU: 0x1FC12, offset: 0x3C2A8, size: 0x8, addend: 0x0, symName: __ZNSt3__122__tree_node_destructorINS_9allocatorINS_11__tree_nodeINS_12__value_typeINS_12basic_stringIcNS_11char_traitsIcEENS1_IcEEEEP6MethodEEPvEEEEEC2B7v160006ERSE_b, symObjAddr: 0x8E70, symBinAddr: 0x10001B490, symSize: 0x30 }
  - { offsetInCU: 0x1FC5A, offset: 0x3C2F0, size: 0x8, addend: 0x0, symName: __ZNSt3__110unique_ptrINS_11__tree_nodeINS_12__value_typeINS_12basic_stringIcNS_11char_traitsIcEENS_9allocatorIcEEEEP6MethodEEPvEENS_22__tree_node_destructorINS6_ISD_EEEEEC2B7v160006ILb1EvEEPSD_NS_16__dependent_typeINS_27__unique_ptr_deleter_sfinaeISG_EEXT_EE20__good_rval_ref_typeE, symObjAddr: 0x8EA0, symBinAddr: 0x10001B4C0, symSize: 0x40 }
  - { offsetInCU: 0x1FCAB, offset: 0x3C341, size: 0x8, addend: 0x0, symName: __ZNSt3__117__compressed_pairIPNS_11__tree_nodeINS_12__value_typeINS_12basic_stringIcNS_11char_traitsIcEENS_9allocatorIcEEEEP6MethodEEPvEENS_22__tree_node_destructorINS6_ISD_EEEEEC1B7v160006IRSE_SH_EEOT_OT0_, symObjAddr: 0x8EE0, symBinAddr: 0x10001B500, symSize: 0x30 }
  - { offsetInCU: 0x1FD03, offset: 0x3C399, size: 0x8, addend: 0x0, symName: __ZNSt3__117__compressed_pairIPNS_11__tree_nodeINS_12__value_typeINS_12basic_stringIcNS_11char_traitsIcEENS_9allocatorIcEEEEP6MethodEEPvEENS_22__tree_node_destructorINS6_ISD_EEEEEC2B7v160006IRSE_SH_EEOT_OT0_, symObjAddr: 0x8F10, symBinAddr: 0x10001B530, symSize: 0x40 }
  - { offsetInCU: 0x1FD5B, offset: 0x3C3F1, size: 0x8, addend: 0x0, symName: __ZNSt3__122__compressed_pair_elemIPNS_11__tree_nodeINS_12__value_typeINS_12basic_stringIcNS_11char_traitsIcEENS_9allocatorIcEEEEP6MethodEEPvEELi0ELb0EEC2B7v160006IRSE_vEEOT_, symObjAddr: 0x8F50, symBinAddr: 0x10001B570, symSize: 0x20 }
  - { offsetInCU: 0x1FD9D, offset: 0x3C433, size: 0x8, addend: 0x0, symName: __ZNSt3__122__compressed_pair_elemINS_22__tree_node_destructorINS_9allocatorINS_11__tree_nodeINS_12__value_typeINS_12basic_stringIcNS_11char_traitsIcEENS2_IcEEEEP6MethodEEPvEEEEEELi1ELb0EEC2B7v160006ISG_vEEOT_, symObjAddr: 0x8F70, symBinAddr: 0x10001B590, symSize: 0x30 }
  - { offsetInCU: 0x1FDDF, offset: 0x3C475, size: 0x8, addend: 0x0, symName: __ZNSt3__19allocatorINS_11__tree_nodeINS_12__value_typeINS_12basic_stringIcNS_11char_traitsIcEENS0_IcEEEEP6MethodEEPvEEE9constructB7v160006INS_4pairIKS7_S9_EEJRKNS_21piecewise_construct_tENS_5tupleIJRSG_EEENSL_IJEEEEEEvPT_DpOT0_, symObjAddr: 0x8FA0, symBinAddr: 0x10001B5C0, symSize: 0x40 }
  - { offsetInCU: 0x1FE5B, offset: 0x3C4F1, size: 0x8, addend: 0x0, symName: __ZNSt3__14pairIKNS_12basic_stringIcNS_11char_traitsIcEENS_9allocatorIcEEEEP6MethodEC1B7v160006IJRS7_EJEEENS_21piecewise_construct_tENS_5tupleIJDpT_EEENSE_IJDpT0_EEE, symObjAddr: 0x8FE0, symBinAddr: 0x10001B600, symSize: 0x30 }
  - { offsetInCU: 0x1FEC2, offset: 0x3C558, size: 0x8, addend: 0x0, symName: __ZNSt3__14pairIKNS_12basic_stringIcNS_11char_traitsIcEENS_9allocatorIcEEEEP6MethodEC1B7v160006IJRS7_EJEJLm0EEJEEENS_21piecewise_construct_tERNS_5tupleIJDpT_EEERNSE_IJDpT0_EEENS_15__tuple_indicesIJXspT1_EEEENSN_IJXspT2_EEEE, symObjAddr: 0x9010, symBinAddr: 0x10001B630, symSize: 0x30 }
  - { offsetInCU: 0x1FF52, offset: 0x3C5E8, size: 0x8, addend: 0x0, symName: __ZNSt3__14pairIKNS_12basic_stringIcNS_11char_traitsIcEENS_9allocatorIcEEEEP6MethodEC2B7v160006IJRS7_EJEJLm0EEJEEENS_21piecewise_construct_tERNS_5tupleIJDpT_EEERNSE_IJDpT0_EEENS_15__tuple_indicesIJXspT1_EEEENSN_IJXspT2_EEEE, symObjAddr: 0x9040, symBinAddr: 0x10001B660, symSize: 0x50 }
  - { offsetInCU: 0x1FFE2, offset: 0x3C678, size: 0x8, addend: 0x0, symName: __ZNKSt3__117__compressed_pairIPNS_11__tree_nodeINS_12__value_typeINS_12basic_stringIcNS_11char_traitsIcEENS_9allocatorIcEEEEP6MethodEEPvEENS_22__tree_node_destructorINS6_ISD_EEEEE5firstB7v160006Ev, symObjAddr: 0x9090, symBinAddr: 0x10001B6B0, symSize: 0x20 }
  - { offsetInCU: 0x20008, offset: 0x3C69E, size: 0x8, addend: 0x0, symName: __ZNKSt3__122__compressed_pair_elemIPNS_11__tree_nodeINS_12__value_typeINS_12basic_stringIcNS_11char_traitsIcEENS_9allocatorIcEEEEP6MethodEEPvEELi0ELb0EE5__getB7v160006Ev, symObjAddr: 0x90B0, symBinAddr: 0x10001B6D0, symSize: 0x10 }
  - { offsetInCU: 0x2002E, offset: 0x3C6C4, size: 0x8, addend: 0x0, symName: __ZNSt3__117__compressed_pairIPNS_11__tree_nodeINS_12__value_typeINS_12basic_stringIcNS_11char_traitsIcEENS_9allocatorIcEEEEP6MethodEEPvEENS_22__tree_node_destructorINS6_ISD_EEEEE6secondB7v160006Ev, symObjAddr: 0x90C0, symBinAddr: 0x10001B6E0, symSize: 0x20 }
  - { offsetInCU: 0x20054, offset: 0x3C6EA, size: 0x8, addend: 0x0, symName: __ZNSt3__122__compressed_pair_elemINS_22__tree_node_destructorINS_9allocatorINS_11__tree_nodeINS_12__value_typeINS_12basic_stringIcNS_11char_traitsIcEENS2_IcEEEEP6MethodEEPvEEEEEELi1ELb0EE5__getB7v160006Ev, symObjAddr: 0x90E0, symBinAddr: 0x10001B700, symSize: 0x10 }
  - { offsetInCU: 0x2007A, offset: 0x3C710, size: 0x8, addend: 0x0, symName: __ZNSt3__16__treeINS_12__value_typeINS_12basic_stringIcNS_11char_traitsIcEENS_9allocatorIcEEEEP6MethodEENS_19__map_value_compareIS7_SA_NS_4lessIS7_EELb1EEENS5_ISA_EEE4sizeB7v160006Ev, symObjAddr: 0x90F0, symBinAddr: 0x10001B710, symSize: 0x20 }
  - { offsetInCU: 0x200A0, offset: 0x3C736, size: 0x8, addend: 0x0, symName: __ZNSt3__117__compressed_pairImNS_19__map_value_compareINS_12basic_stringIcNS_11char_traitsIcEENS_9allocatorIcEEEENS_12__value_typeIS7_P6MethodEENS_4lessIS7_EELb1EEEE5firstB7v160006Ev, symObjAddr: 0x9110, symBinAddr: 0x10001B730, symSize: 0x20 }
  - { offsetInCU: 0x200C6, offset: 0x3C75C, size: 0x8, addend: 0x0, symName: __ZNSt3__117__compressed_pairIPNS_11__tree_nodeINS_12__value_typeINS_12basic_stringIcNS_11char_traitsIcEENS_9allocatorIcEEEEP6MethodEEPvEENS_22__tree_node_destructorINS6_ISD_EEEEE5firstB7v160006Ev, symObjAddr: 0x9130, symBinAddr: 0x10001B750, symSize: 0x20 }
  - { offsetInCU: 0x200EC, offset: 0x3C782, size: 0x8, addend: 0x0, symName: __ZNSt3__122__compressed_pair_elemIPNS_11__tree_nodeINS_12__value_typeINS_12basic_stringIcNS_11char_traitsIcEENS_9allocatorIcEEEEP6MethodEEPvEELi0ELb0EE5__getB7v160006Ev, symObjAddr: 0x9150, symBinAddr: 0x10001B770, symSize: 0x10 }
  - { offsetInCU: 0x20112, offset: 0x3C7A8, size: 0x8, addend: 0x0, symName: __ZNSt3__110unique_ptrINS_11__tree_nodeINS_12__value_typeINS_12basic_stringIcNS_11char_traitsIcEENS_9allocatorIcEEEEP6MethodEEPvEENS_22__tree_node_destructorINS6_ISD_EEEEED2B7v160006Ev, symObjAddr: 0x9160, symBinAddr: 0x10001B780, symSize: 0x20 }
  - { offsetInCU: 0x2013C, offset: 0x3C7D2, size: 0x8, addend: 0x0, symName: __ZNSt3__110unique_ptrINS_11__tree_nodeINS_12__value_typeINS_12basic_stringIcNS_11char_traitsIcEENS_9allocatorIcEEEEP6MethodEEPvEENS_22__tree_node_destructorINS6_ISD_EEEEE5resetB7v160006EPSD_, symObjAddr: 0x9180, symBinAddr: 0x10001B7A0, symSize: 0x70 }
  - { offsetInCU: 0x20180, offset: 0x3C816, size: 0x8, addend: 0x0, symName: __ZNSt3__122__tree_node_destructorINS_9allocatorINS_11__tree_nodeINS_12__value_typeINS_12basic_stringIcNS_11char_traitsIcEENS1_IcEEEEP6MethodEEPvEEEEEclB7v160006EPSD_, symObjAddr: 0x91F0, symBinAddr: 0x10001B810, symSize: 0x80 }
  - { offsetInCU: 0x201B5, offset: 0x3C84B, size: 0x8, addend: 0x0, symName: __ZNSt3__115__tree_iteratorINS_12__value_typeINS_12basic_stringIcNS_11char_traitsIcEENS_9allocatorIcEEEEP6MethodEEPNS_11__tree_nodeISA_PvEElEC2B7v160006ESE_, symObjAddr: 0x9270, symBinAddr: 0x10001B890, symSize: 0x20 }
  - { offsetInCU: 0x201EE, offset: 0x3C884, size: 0x8, addend: 0x0, symName: __ZNSt3__14pairINS_15__tree_iteratorINS_12__value_typeINS_12basic_stringIcNS_11char_traitsIcEENS_9allocatorIcEEEEP6MethodEEPNS_11__tree_nodeISB_PvEElEEbEC2B7v160006ISG_RbLSD_0EEEOT_OT0_, symObjAddr: 0x9290, symBinAddr: 0x10001B8B0, symSize: 0x30 }
  - { offsetInCU: 0x2024C, offset: 0x3C8E2, size: 0x8, addend: 0x0, symName: __ZNSt3__114pointer_traitsIPNS_12__value_typeINS_12basic_stringIcNS_11char_traitsIcEENS_9allocatorIcEEEEP6MethodEEE10pointer_toB7v160006ERSA_, symObjAddr: 0x92C0, symBinAddr: 0x10001B8E0, symSize: 0x10 }
  - { offsetInCU: 0x2026F, offset: 0x3C905, size: 0x8, addend: 0x0, symName: __ZNKSt3__115__tree_iteratorINS_12__value_typeINS_12basic_stringIcNS_11char_traitsIcEENS_9allocatorIcEEEEP6MethodEEPNS_11__tree_nodeISA_PvEElE8__get_npB7v160006Ev, symObjAddr: 0x92D0, symBinAddr: 0x10001B8F0, symSize: 0x20 }
  - { offsetInCU: 0x20295, offset: 0x3C92B, size: 0x8, addend: 0x0, symName: __ZNSt3__16__treeINS_12__value_typeINS_12basic_stringIcNS_11char_traitsIcEENS_9allocatorIcEEEEP8VariableEENS_19__map_value_compareIS7_SA_NS_4lessIS7_EELb1EEENS5_ISA_EEE25__emplace_unique_key_argsIS7_JRKNS_21piecewise_construct_tENS_5tupleIJRKS7_EEENSL_IJEEEEEENS_4pairINS_15__tree_iteratorISA_PNS_11__tree_nodeISA_PvEElEEbEERKT_DpOT0_, symObjAddr: 0x92F0, symBinAddr: 0x10001B910, symSize: 0x100 }
  - { offsetInCU: 0x20375, offset: 0x3CA0B, size: 0x8, addend: 0x0, symName: __ZNKSt3__115__tree_iteratorINS_12__value_typeINS_12basic_stringIcNS_11char_traitsIcEENS_9allocatorIcEEEEP8VariableEEPNS_11__tree_nodeISA_PvEElEptB7v160006Ev, symObjAddr: 0x93F0, symBinAddr: 0x10001BA10, symSize: 0x30 }
  - { offsetInCU: 0x2039B, offset: 0x3CA31, size: 0x8, addend: 0x0, symName: __ZNSt3__16__treeINS_12__value_typeINS_12basic_stringIcNS_11char_traitsIcEENS_9allocatorIcEEEEP8VariableEENS_19__map_value_compareIS7_SA_NS_4lessIS7_EELb1EEENS5_ISA_EEE12__find_equalIS7_EERPNS_16__tree_node_baseIPvEERPNS_15__tree_end_nodeISL_EERKT_, symObjAddr: 0x9420, symBinAddr: 0x10001BA40, symSize: 0x180 }
  - { offsetInCU: 0x20408, offset: 0x3CA9E, size: 0x8, addend: 0x0, symName: __ZNSt3__16__treeINS_12__value_typeINS_12basic_stringIcNS_11char_traitsIcEENS_9allocatorIcEEEEP8VariableEENS_19__map_value_compareIS7_SA_NS_4lessIS7_EELb1EEENS5_ISA_EEE16__construct_nodeIJRKNS_21piecewise_construct_tENS_5tupleIJRKS7_EEENSL_IJEEEEEENS_10unique_ptrINS_11__tree_nodeISA_PvEENS_22__tree_node_destructorINS5_IST_EEEEEEDpOT_, symObjAddr: 0x95A0, symBinAddr: 0x10001BBC0, symSize: 0x120 }
  - { offsetInCU: 0x20491, offset: 0x3CB27, size: 0x8, addend: 0x0, symName: __ZNSt3__16__treeINS_12__value_typeINS_12basic_stringIcNS_11char_traitsIcEENS_9allocatorIcEEEEP8VariableEENS_19__map_value_compareIS7_SA_NS_4lessIS7_EELb1EEENS5_ISA_EEE16__insert_node_atEPNS_15__tree_end_nodeIPNS_16__tree_node_baseIPvEEEERSL_SL_, symObjAddr: 0x96C0, symBinAddr: 0x10001BCE0, symSize: 0xC0 }
  - { offsetInCU: 0x204E6, offset: 0x3CB7C, size: 0x8, addend: 0x0, symName: __ZNKSt3__110unique_ptrINS_11__tree_nodeINS_12__value_typeINS_12basic_stringIcNS_11char_traitsIcEENS_9allocatorIcEEEEP8VariableEEPvEENS_22__tree_node_destructorINS6_ISD_EEEEE3getB7v160006Ev, symObjAddr: 0x9780, symBinAddr: 0x10001BDA0, symSize: 0x20 }
  - { offsetInCU: 0x2050C, offset: 0x3CBA2, size: 0x8, addend: 0x0, symName: __ZNSt3__110unique_ptrINS_11__tree_nodeINS_12__value_typeINS_12basic_stringIcNS_11char_traitsIcEENS_9allocatorIcEEEEP8VariableEEPvEENS_22__tree_node_destructorINS6_ISD_EEEEE7releaseB7v160006Ev, symObjAddr: 0x97A0, symBinAddr: 0x10001BDC0, symSize: 0x40 }
  - { offsetInCU: 0x20541, offset: 0x3CBD7, size: 0x8, addend: 0x0, symName: __ZNSt3__110unique_ptrINS_11__tree_nodeINS_12__value_typeINS_12basic_stringIcNS_11char_traitsIcEENS_9allocatorIcEEEEP8VariableEEPvEENS_22__tree_node_destructorINS6_ISD_EEEEED1B7v160006Ev, symObjAddr: 0x97E0, symBinAddr: 0x10001BE00, symSize: 0x20 }
  - { offsetInCU: 0x2056B, offset: 0x3CC01, size: 0x8, addend: 0x0, symName: __ZNSt3__115__tree_iteratorINS_12__value_typeINS_12basic_stringIcNS_11char_traitsIcEENS_9allocatorIcEEEEP8VariableEEPNS_11__tree_nodeISA_PvEElEC1B7v160006ESE_, symObjAddr: 0x9800, symBinAddr: 0x10001BE20, symSize: 0x30 }
  - { offsetInCU: 0x205A9, offset: 0x3CC3F, size: 0x8, addend: 0x0, symName: __ZNSt3__14pairINS_15__tree_iteratorINS_12__value_typeINS_12basic_stringIcNS_11char_traitsIcEENS_9allocatorIcEEEEP8VariableEEPNS_11__tree_nodeISB_PvEElEEbEC1B7v160006ISG_RbLSD_0EEEOT_OT0_, symObjAddr: 0x9830, symBinAddr: 0x10001BE50, symSize: 0x30 }
  - { offsetInCU: 0x20607, offset: 0x3CC9D, size: 0x8, addend: 0x0, symName: __ZNKSt3__16__treeINS_12__value_typeINS_12basic_stringIcNS_11char_traitsIcEENS_9allocatorIcEEEEP8VariableEENS_19__map_value_compareIS7_SA_NS_4lessIS7_EELb1EEENS5_ISA_EEE10__root_ptrEv, symObjAddr: 0x9860, symBinAddr: 0x10001BE80, symSize: 0x20 }
  - { offsetInCU: 0x2062D, offset: 0x3CCC3, size: 0x8, addend: 0x0, symName: __ZNSt3__16__treeINS_12__value_typeINS_12basic_stringIcNS_11char_traitsIcEENS_9allocatorIcEEEEP8VariableEENS_19__map_value_compareIS7_SA_NS_4lessIS7_EELb1EEENS5_ISA_EEE10value_compB7v160006Ev, symObjAddr: 0x9880, symBinAddr: 0x10001BEA0, symSize: 0x20 }
  - { offsetInCU: 0x20653, offset: 0x3CCE9, size: 0x8, addend: 0x0, symName: __ZNKSt3__119__map_value_compareINS_12basic_stringIcNS_11char_traitsIcEENS_9allocatorIcEEEENS_12__value_typeIS6_P8VariableEENS_4lessIS6_EELb1EEclB7v160006ERKS6_RKSA_, symObjAddr: 0x98A0, symBinAddr: 0x10001BEC0, symSize: 0x50 }
  - { offsetInCU: 0x20697, offset: 0x3CD2D, size: 0x8, addend: 0x0, symName: __ZNKSt3__119__map_value_compareINS_12basic_stringIcNS_11char_traitsIcEENS_9allocatorIcEEEENS_12__value_typeIS6_P8VariableEENS_4lessIS6_EELb1EEclB7v160006ERKSA_RKS6_, symObjAddr: 0x98F0, symBinAddr: 0x10001BF10, symSize: 0x40 }
  - { offsetInCU: 0x206DB, offset: 0x3CD71, size: 0x8, addend: 0x0, symName: __ZNSt3__117__compressed_pairImNS_19__map_value_compareINS_12basic_stringIcNS_11char_traitsIcEENS_9allocatorIcEEEENS_12__value_typeIS7_P8VariableEENS_4lessIS7_EELb1EEEE6secondB7v160006Ev, symObjAddr: 0x9930, symBinAddr: 0x10001BF50, symSize: 0x20 }
  - { offsetInCU: 0x20701, offset: 0x3CD97, size: 0x8, addend: 0x0, symName: __ZNSt3__122__compressed_pair_elemINS_19__map_value_compareINS_12basic_stringIcNS_11char_traitsIcEENS_9allocatorIcEEEENS_12__value_typeIS7_P8VariableEENS_4lessIS7_EELb1EEELi1ELb1EE5__getB7v160006Ev, symObjAddr: 0x9950, symBinAddr: 0x10001BF70, symSize: 0x10 }
  - { offsetInCU: 0x20727, offset: 0x3CDBD, size: 0x8, addend: 0x0, symName: __ZNKSt3__112__value_typeINS_12basic_stringIcNS_11char_traitsIcEENS_9allocatorIcEEEEP8VariableE11__get_valueB7v160006Ev, symObjAddr: 0x9960, symBinAddr: 0x10001BF80, symSize: 0x10 }
  - { offsetInCU: 0x2074D, offset: 0x3CDE3, size: 0x8, addend: 0x0, symName: __ZNSt3__116allocator_traitsINS_9allocatorINS_11__tree_nodeINS_12__value_typeINS_12basic_stringIcNS_11char_traitsIcEENS1_IcEEEEP8VariableEEPvEEEEE8allocateB7v160006ERSE_m, symObjAddr: 0x9970, symBinAddr: 0x10001BF90, symSize: 0x30 }
  - { offsetInCU: 0x20780, offset: 0x3CE16, size: 0x8, addend: 0x0, symName: __ZNSt3__122__tree_node_destructorINS_9allocatorINS_11__tree_nodeINS_12__value_typeINS_12basic_stringIcNS_11char_traitsIcEENS1_IcEEEEP8VariableEEPvEEEEEC1B7v160006ERSE_b, symObjAddr: 0x99A0, symBinAddr: 0x10001BFC0, symSize: 0x40 }
  - { offsetInCU: 0x207CD, offset: 0x3CE63, size: 0x8, addend: 0x0, symName: __ZNSt3__110unique_ptrINS_11__tree_nodeINS_12__value_typeINS_12basic_stringIcNS_11char_traitsIcEENS_9allocatorIcEEEEP8VariableEEPvEENS_22__tree_node_destructorINS6_ISD_EEEEEC1B7v160006ILb1EvEEPSD_NS_16__dependent_typeINS_27__unique_ptr_deleter_sfinaeISG_EEXT_EE20__good_rval_ref_typeE, symObjAddr: 0x99E0, symBinAddr: 0x10001C000, symSize: 0x30 }
  - { offsetInCU: 0x2081E, offset: 0x3CEB4, size: 0x8, addend: 0x0, symName: __ZNSt3__116allocator_traitsINS_9allocatorINS_11__tree_nodeINS_12__value_typeINS_12basic_stringIcNS_11char_traitsIcEENS1_IcEEEEP8VariableEEPvEEEEE9constructB7v160006INS_4pairIKS8_SA_EEJRKNS_21piecewise_construct_tENS_5tupleIJRSI_EEENSN_IJEEEEvEEvRSE_PT_DpOT0_, symObjAddr: 0x9A10, symBinAddr: 0x10001C030, symSize: 0x40 }
  - { offsetInCU: 0x2089D, offset: 0x3CF33, size: 0x8, addend: 0x0, symName: __ZNKSt3__110unique_ptrINS_11__tree_nodeINS_12__value_typeINS_12basic_stringIcNS_11char_traitsIcEENS_9allocatorIcEEEEP8VariableEEPvEENS_22__tree_node_destructorINS6_ISD_EEEEEptB7v160006Ev, symObjAddr: 0x9A50, symBinAddr: 0x10001C070, symSize: 0x20 }
  - { offsetInCU: 0x208C3, offset: 0x3CF59, size: 0x8, addend: 0x0, symName: __ZNSt3__110unique_ptrINS_11__tree_nodeINS_12__value_typeINS_12basic_stringIcNS_11char_traitsIcEENS_9allocatorIcEEEEP8VariableEEPvEENS_22__tree_node_destructorINS6_ISD_EEEEE11get_deleterB7v160006Ev, symObjAddr: 0x9A70, symBinAddr: 0x10001C090, symSize: 0x20 }
  - { offsetInCU: 0x208E9, offset: 0x3CF7F, size: 0x8, addend: 0x0, symName: __ZNSt3__19allocatorINS_11__tree_nodeINS_12__value_typeINS_12basic_stringIcNS_11char_traitsIcEENS0_IcEEEEP8VariableEEPvEEE8allocateB7v160006Em, symObjAddr: 0x9A90, symBinAddr: 0x10001C0B0, symSize: 0x50 }
  - { offsetInCU: 0x20927, offset: 0x3CFBD, size: 0x8, addend: 0x0, symName: __ZNSt3__116allocator_traitsINS_9allocatorINS_11__tree_nodeINS_12__value_typeINS_12basic_stringIcNS_11char_traitsIcEENS1_IcEEEEP8VariableEEPvEEEEE8max_sizeB7v160006ISE_vEEmRKSE_, symObjAddr: 0x9AE0, symBinAddr: 0x10001C100, symSize: 0x20 }
  - { offsetInCU: 0x20955, offset: 0x3CFEB, size: 0x8, addend: 0x0, symName: __ZNKSt3__19allocatorINS_11__tree_nodeINS_12__value_typeINS_12basic_stringIcNS_11char_traitsIcEENS0_IcEEEEP8VariableEEPvEEE8max_sizeB7v160006Ev, symObjAddr: 0x9B00, symBinAddr: 0x10001C120, symSize: 0x20 }
  - { offsetInCU: 0x2097B, offset: 0x3D011, size: 0x8, addend: 0x0, symName: __ZNSt3__122__tree_node_destructorINS_9allocatorINS_11__tree_nodeINS_12__value_typeINS_12basic_stringIcNS_11char_traitsIcEENS1_IcEEEEP8VariableEEPvEEEEEC2B7v160006ERSE_b, symObjAddr: 0x9B20, symBinAddr: 0x10001C140, symSize: 0x30 }
  - { offsetInCU: 0x209C3, offset: 0x3D059, size: 0x8, addend: 0x0, symName: __ZNSt3__110unique_ptrINS_11__tree_nodeINS_12__value_typeINS_12basic_stringIcNS_11char_traitsIcEENS_9allocatorIcEEEEP8VariableEEPvEENS_22__tree_node_destructorINS6_ISD_EEEEEC2B7v160006ILb1EvEEPSD_NS_16__dependent_typeINS_27__unique_ptr_deleter_sfinaeISG_EEXT_EE20__good_rval_ref_typeE, symObjAddr: 0x9B50, symBinAddr: 0x10001C170, symSize: 0x40 }
  - { offsetInCU: 0x20A14, offset: 0x3D0AA, size: 0x8, addend: 0x0, symName: __ZNSt3__117__compressed_pairIPNS_11__tree_nodeINS_12__value_typeINS_12basic_stringIcNS_11char_traitsIcEENS_9allocatorIcEEEEP8VariableEEPvEENS_22__tree_node_destructorINS6_ISD_EEEEEC1B7v160006IRSE_SH_EEOT_OT0_, symObjAddr: 0x9B90, symBinAddr: 0x10001C1B0, symSize: 0x30 }
  - { offsetInCU: 0x20A6C, offset: 0x3D102, size: 0x8, addend: 0x0, symName: __ZNSt3__117__compressed_pairIPNS_11__tree_nodeINS_12__value_typeINS_12basic_stringIcNS_11char_traitsIcEENS_9allocatorIcEEEEP8VariableEEPvEENS_22__tree_node_destructorINS6_ISD_EEEEEC2B7v160006IRSE_SH_EEOT_OT0_, symObjAddr: 0x9BC0, symBinAddr: 0x10001C1E0, symSize: 0x40 }
  - { offsetInCU: 0x20AC4, offset: 0x3D15A, size: 0x8, addend: 0x0, symName: __ZNSt3__122__compressed_pair_elemIPNS_11__tree_nodeINS_12__value_typeINS_12basic_stringIcNS_11char_traitsIcEENS_9allocatorIcEEEEP8VariableEEPvEELi0ELb0EEC2B7v160006IRSE_vEEOT_, symObjAddr: 0x9C00, symBinAddr: 0x10001C220, symSize: 0x20 }
  - { offsetInCU: 0x20B06, offset: 0x3D19C, size: 0x8, addend: 0x0, symName: __ZNSt3__122__compressed_pair_elemINS_22__tree_node_destructorINS_9allocatorINS_11__tree_nodeINS_12__value_typeINS_12basic_stringIcNS_11char_traitsIcEENS2_IcEEEEP8VariableEEPvEEEEEELi1ELb0EEC2B7v160006ISG_vEEOT_, symObjAddr: 0x9C20, symBinAddr: 0x10001C240, symSize: 0x30 }
  - { offsetInCU: 0x20B48, offset: 0x3D1DE, size: 0x8, addend: 0x0, symName: __ZNSt3__19allocatorINS_11__tree_nodeINS_12__value_typeINS_12basic_stringIcNS_11char_traitsIcEENS0_IcEEEEP8VariableEEPvEEE9constructB7v160006INS_4pairIKS7_S9_EEJRKNS_21piecewise_construct_tENS_5tupleIJRSG_EEENSL_IJEEEEEEvPT_DpOT0_, symObjAddr: 0x9C50, symBinAddr: 0x10001C270, symSize: 0x40 }
  - { offsetInCU: 0x20BC4, offset: 0x3D25A, size: 0x8, addend: 0x0, symName: __ZNSt3__14pairIKNS_12basic_stringIcNS_11char_traitsIcEENS_9allocatorIcEEEEP8VariableEC1B7v160006IJRS7_EJEEENS_21piecewise_construct_tENS_5tupleIJDpT_EEENSE_IJDpT0_EEE, symObjAddr: 0x9C90, symBinAddr: 0x10001C2B0, symSize: 0x30 }
  - { offsetInCU: 0x20C2B, offset: 0x3D2C1, size: 0x8, addend: 0x0, symName: __ZNSt3__14pairIKNS_12basic_stringIcNS_11char_traitsIcEENS_9allocatorIcEEEEP8VariableEC1B7v160006IJRS7_EJEJLm0EEJEEENS_21piecewise_construct_tERNS_5tupleIJDpT_EEERNSE_IJDpT0_EEENS_15__tuple_indicesIJXspT1_EEEENSN_IJXspT2_EEEE, symObjAddr: 0x9CC0, symBinAddr: 0x10001C2E0, symSize: 0x30 }
  - { offsetInCU: 0x20CBB, offset: 0x3D351, size: 0x8, addend: 0x0, symName: __ZNSt3__14pairIKNS_12basic_stringIcNS_11char_traitsIcEENS_9allocatorIcEEEEP8VariableEC2B7v160006IJRS7_EJEJLm0EEJEEENS_21piecewise_construct_tERNS_5tupleIJDpT_EEERNSE_IJDpT0_EEENS_15__tuple_indicesIJXspT1_EEEENSN_IJXspT2_EEEE, symObjAddr: 0x9CF0, symBinAddr: 0x10001C310, symSize: 0x50 }
  - { offsetInCU: 0x20D4B, offset: 0x3D3E1, size: 0x8, addend: 0x0, symName: __ZNKSt3__117__compressed_pairIPNS_11__tree_nodeINS_12__value_typeINS_12basic_stringIcNS_11char_traitsIcEENS_9allocatorIcEEEEP8VariableEEPvEENS_22__tree_node_destructorINS6_ISD_EEEEE5firstB7v160006Ev, symObjAddr: 0x9D40, symBinAddr: 0x10001C360, symSize: 0x20 }
  - { offsetInCU: 0x20D71, offset: 0x3D407, size: 0x8, addend: 0x0, symName: __ZNKSt3__122__compressed_pair_elemIPNS_11__tree_nodeINS_12__value_typeINS_12basic_stringIcNS_11char_traitsIcEENS_9allocatorIcEEEEP8VariableEEPvEELi0ELb0EE5__getB7v160006Ev, symObjAddr: 0x9D60, symBinAddr: 0x10001C380, symSize: 0x10 }
  - { offsetInCU: 0x20D97, offset: 0x3D42D, size: 0x8, addend: 0x0, symName: __ZNSt3__117__compressed_pairIPNS_11__tree_nodeINS_12__value_typeINS_12basic_stringIcNS_11char_traitsIcEENS_9allocatorIcEEEEP8VariableEEPvEENS_22__tree_node_destructorINS6_ISD_EEEEE6secondB7v160006Ev, symObjAddr: 0x9D70, symBinAddr: 0x10001C390, symSize: 0x20 }
  - { offsetInCU: 0x20DBD, offset: 0x3D453, size: 0x8, addend: 0x0, symName: __ZNSt3__122__compressed_pair_elemINS_22__tree_node_destructorINS_9allocatorINS_11__tree_nodeINS_12__value_typeINS_12basic_stringIcNS_11char_traitsIcEENS2_IcEEEEP8VariableEEPvEEEEEELi1ELb0EE5__getB7v160006Ev, symObjAddr: 0x9D90, symBinAddr: 0x10001C3B0, symSize: 0x10 }
  - { offsetInCU: 0x20DE3, offset: 0x3D479, size: 0x8, addend: 0x0, symName: __ZNSt3__16__treeINS_12__value_typeINS_12basic_stringIcNS_11char_traitsIcEENS_9allocatorIcEEEEP8VariableEENS_19__map_value_compareIS7_SA_NS_4lessIS7_EELb1EEENS5_ISA_EEE4sizeB7v160006Ev, symObjAddr: 0x9DA0, symBinAddr: 0x10001C3C0, symSize: 0x20 }
  - { offsetInCU: 0x20E09, offset: 0x3D49F, size: 0x8, addend: 0x0, symName: __ZNSt3__117__compressed_pairImNS_19__map_value_compareINS_12basic_stringIcNS_11char_traitsIcEENS_9allocatorIcEEEENS_12__value_typeIS7_P8VariableEENS_4lessIS7_EELb1EEEE5firstB7v160006Ev, symObjAddr: 0x9DC0, symBinAddr: 0x10001C3E0, symSize: 0x20 }
  - { offsetInCU: 0x20E2F, offset: 0x3D4C5, size: 0x8, addend: 0x0, symName: __ZNSt3__117__compressed_pairIPNS_11__tree_nodeINS_12__value_typeINS_12basic_stringIcNS_11char_traitsIcEENS_9allocatorIcEEEEP8VariableEEPvEENS_22__tree_node_destructorINS6_ISD_EEEEE5firstB7v160006Ev, symObjAddr: 0x9DE0, symBinAddr: 0x10001C400, symSize: 0x20 }
  - { offsetInCU: 0x20E55, offset: 0x3D4EB, size: 0x8, addend: 0x0, symName: __ZNSt3__122__compressed_pair_elemIPNS_11__tree_nodeINS_12__value_typeINS_12basic_stringIcNS_11char_traitsIcEENS_9allocatorIcEEEEP8VariableEEPvEELi0ELb0EE5__getB7v160006Ev, symObjAddr: 0x9E00, symBinAddr: 0x10001C420, symSize: 0x10 }
  - { offsetInCU: 0x20E7B, offset: 0x3D511, size: 0x8, addend: 0x0, symName: __ZNSt3__110unique_ptrINS_11__tree_nodeINS_12__value_typeINS_12basic_stringIcNS_11char_traitsIcEENS_9allocatorIcEEEEP8VariableEEPvEENS_22__tree_node_destructorINS6_ISD_EEEEED2B7v160006Ev, symObjAddr: 0x9E10, symBinAddr: 0x10001C430, symSize: 0x20 }
  - { offsetInCU: 0x20EA5, offset: 0x3D53B, size: 0x8, addend: 0x0, symName: __ZNSt3__110unique_ptrINS_11__tree_nodeINS_12__value_typeINS_12basic_stringIcNS_11char_traitsIcEENS_9allocatorIcEEEEP8VariableEEPvEENS_22__tree_node_destructorINS6_ISD_EEEEE5resetB7v160006EPSD_, symObjAddr: 0x9E30, symBinAddr: 0x10001C450, symSize: 0x70 }
  - { offsetInCU: 0x20EE9, offset: 0x3D57F, size: 0x8, addend: 0x0, symName: __ZNSt3__122__tree_node_destructorINS_9allocatorINS_11__tree_nodeINS_12__value_typeINS_12basic_stringIcNS_11char_traitsIcEENS1_IcEEEEP8VariableEEPvEEEEEclB7v160006EPSD_, symObjAddr: 0x9EA0, symBinAddr: 0x10001C4C0, symSize: 0x80 }
  - { offsetInCU: 0x20F1E, offset: 0x3D5B4, size: 0x8, addend: 0x0, symName: __ZNSt3__115__tree_iteratorINS_12__value_typeINS_12basic_stringIcNS_11char_traitsIcEENS_9allocatorIcEEEEP8VariableEEPNS_11__tree_nodeISA_PvEElEC2B7v160006ESE_, symObjAddr: 0x9F20, symBinAddr: 0x10001C540, symSize: 0x20 }
  - { offsetInCU: 0x20F57, offset: 0x3D5ED, size: 0x8, addend: 0x0, symName: __ZNSt3__14pairINS_15__tree_iteratorINS_12__value_typeINS_12basic_stringIcNS_11char_traitsIcEENS_9allocatorIcEEEEP8VariableEEPNS_11__tree_nodeISB_PvEElEEbEC2B7v160006ISG_RbLSD_0EEEOT_OT0_, symObjAddr: 0x9F40, symBinAddr: 0x10001C560, symSize: 0x30 }
  - { offsetInCU: 0x20FB5, offset: 0x3D64B, size: 0x8, addend: 0x0, symName: __ZNSt3__114pointer_traitsIPNS_12__value_typeINS_12basic_stringIcNS_11char_traitsIcEENS_9allocatorIcEEEEP8VariableEEE10pointer_toB7v160006ERSA_, symObjAddr: 0x9F70, symBinAddr: 0x10001C590, symSize: 0x10 }
  - { offsetInCU: 0x20FD8, offset: 0x3D66E, size: 0x8, addend: 0x0, symName: __ZNKSt3__115__tree_iteratorINS_12__value_typeINS_12basic_stringIcNS_11char_traitsIcEENS_9allocatorIcEEEEP8VariableEEPNS_11__tree_nodeISA_PvEElE8__get_npB7v160006Ev, symObjAddr: 0x9F80, symBinAddr: 0x10001C5A0, symSize: 0x20 }
  - { offsetInCU: 0x20FFE, offset: 0x3D694, size: 0x8, addend: 0x0, symName: __ZNSt3__16vectorIP5ScopeNS_9allocatorIS2_EEE9push_backB7v160006ERKS2_, symObjAddr: 0x9FA0, symBinAddr: 0x10001C5C0, symSize: 0x60 }
  - { offsetInCU: 0x21035, offset: 0x3D6CB, size: 0x8, addend: 0x0, symName: __ZNSt3__16vectorIP5ScopeNS_9allocatorIS2_EEE9__end_capB7v160006Ev, symObjAddr: 0xA000, symBinAddr: 0x10001C620, symSize: 0x20 }
  - { offsetInCU: 0x2105B, offset: 0x3D6F1, size: 0x8, addend: 0x0, symName: __ZNSt3__16vectorIP5ScopeNS_9allocatorIS2_EEE22__construct_one_at_endB7v160006IJRKS2_EEEvDpOT_, symObjAddr: 0xA020, symBinAddr: 0x10001C640, symSize: 0x90 }
  - { offsetInCU: 0x210AA, offset: 0x3D740, size: 0x8, addend: 0x0, symName: __ZNSt3__16vectorIP5ScopeNS_9allocatorIS2_EEE21__push_back_slow_pathIRKS2_EEvOT_, symObjAddr: 0xA0B0, symBinAddr: 0x10001C6D0, symSize: 0xD0 }
  - { offsetInCU: 0x21108, offset: 0x3D79E, size: 0x8, addend: 0x0, symName: __ZNSt3__117__compressed_pairIPP5ScopeNS_9allocatorIS2_EEE5firstB7v160006Ev, symObjAddr: 0xA180, symBinAddr: 0x10001C7A0, symSize: 0x20 }
  - { offsetInCU: 0x2112E, offset: 0x3D7C4, size: 0x8, addend: 0x0, symName: __ZNSt3__122__compressed_pair_elemIPP5ScopeLi0ELb0EE5__getB7v160006Ev, symObjAddr: 0xA1A0, symBinAddr: 0x10001C7C0, symSize: 0x10 }
  - { offsetInCU: 0x2116D, offset: 0x3D803, size: 0x8, addend: 0x0, symName: __ZNSt3__16vectorIP5ScopeNS_9allocatorIS2_EEE21_ConstructTransactionC1B7v160006ERS5_m, symObjAddr: 0xA1B0, symBinAddr: 0x10001C7D0, symSize: 0x30 }
  - { offsetInCU: 0x211B5, offset: 0x3D84B, size: 0x8, addend: 0x0, symName: __ZNSt3__116allocator_traitsINS_9allocatorIP5ScopeEEE9constructB7v160006IS3_JRKS3_EvEEvRS4_PT_DpOT0_, symObjAddr: 0xA1E0, symBinAddr: 0x10001C800, symSize: 0x30 }
  - { offsetInCU: 0x2120C, offset: 0x3D8A2, size: 0x8, addend: 0x0, symName: __ZNSt3__16vectorIP5ScopeNS_9allocatorIS2_EEE21_ConstructTransactionD1B7v160006Ev, symObjAddr: 0xA210, symBinAddr: 0x10001C830, symSize: 0x20 }
  - { offsetInCU: 0x21236, offset: 0x3D8CC, size: 0x8, addend: 0x0, symName: __ZNSt3__16vectorIP5ScopeNS_9allocatorIS2_EEE21_ConstructTransactionC2B7v160006ERS5_m, symObjAddr: 0xA230, symBinAddr: 0x10001C850, symSize: 0x40 }
  - { offsetInCU: 0x2127E, offset: 0x3D914, size: 0x8, addend: 0x0, symName: __ZNSt3__19allocatorIP5ScopeE9constructB7v160006IS2_JRKS2_EEEvPT_DpOT0_, symObjAddr: 0xA270, symBinAddr: 0x10001C890, symSize: 0x20 }
  - { offsetInCU: 0x212D4, offset: 0x3D96A, size: 0x8, addend: 0x0, symName: __ZNSt3__16vectorIP5ScopeNS_9allocatorIS2_EEE21_ConstructTransactionD2B7v160006Ev, symObjAddr: 0xA290, symBinAddr: 0x10001C8B0, symSize: 0x20 }
  - { offsetInCU: 0x212FE, offset: 0x3D994, size: 0x8, addend: 0x0, symName: __ZNKSt3__16vectorIP5ScopeNS_9allocatorIS2_EEE11__recommendB7v160006Em, symObjAddr: 0xA2B0, symBinAddr: 0x10001C8D0, symSize: 0xA0 }
  - { offsetInCU: 0x21353, offset: 0x3D9E9, size: 0x8, addend: 0x0, symName: __ZNSt3__114__split_bufferIP5ScopeRNS_9allocatorIS2_EEEC1EmmS5_, symObjAddr: 0xA350, symBinAddr: 0x10001C970, symSize: 0x40 }
  - { offsetInCU: 0x213A9, offset: 0x3DA3F, size: 0x8, addend: 0x0, symName: __ZNSt3__114__split_bufferIP5ScopeRNS_9allocatorIS2_EEED1Ev, symObjAddr: 0xA4C0, symBinAddr: 0x10001CAE0, symSize: 0x20 }
  - { offsetInCU: 0x213D5, offset: 0x3DA6B, size: 0x8, addend: 0x0, symName: __ZNKSt3__16vectorIP5ScopeNS_9allocatorIS2_EEE8max_sizeEv, symObjAddr: 0xA4E0, symBinAddr: 0x10001CB00, symSize: 0x60 }
  - { offsetInCU: 0x213FD, offset: 0x3DA93, size: 0x8, addend: 0x0, symName: __ZNKSt3__16vectorIP5ScopeNS_9allocatorIS2_EEE20__throw_length_errorB7v160006Ev, symObjAddr: 0xA540, symBinAddr: 0x10001CB60, symSize: 0x20 }
  - { offsetInCU: 0x2142D, offset: 0x3DAC3, size: 0x8, addend: 0x0, symName: __ZNSt3__116allocator_traitsINS_9allocatorIP5ScopeEEE8max_sizeB7v160006IS4_vEEmRKS4_, symObjAddr: 0xA590, symBinAddr: 0x10001CB80, symSize: 0x20 }
  - { offsetInCU: 0x2145B, offset: 0x3DAF1, size: 0x8, addend: 0x0, symName: __ZNKSt3__16vectorIP5ScopeNS_9allocatorIS2_EEE7__allocB7v160006Ev, symObjAddr: 0xA5B0, symBinAddr: 0x10001CBA0, symSize: 0x20 }
  - { offsetInCU: 0x21481, offset: 0x3DB17, size: 0x8, addend: 0x0, symName: __ZNKSt3__19allocatorIP5ScopeE8max_sizeB7v160006Ev, symObjAddr: 0xA5E0, symBinAddr: 0x10001CBC0, symSize: 0x20 }
  - { offsetInCU: 0x214A7, offset: 0x3DB3D, size: 0x8, addend: 0x0, symName: __ZNKSt3__117__compressed_pairIPP5ScopeNS_9allocatorIS2_EEE6secondB7v160006Ev, symObjAddr: 0xA600, symBinAddr: 0x10001CBE0, symSize: 0x20 }
  - { offsetInCU: 0x214CD, offset: 0x3DB63, size: 0x8, addend: 0x0, symName: __ZNKSt3__122__compressed_pair_elemINS_9allocatorIP5ScopeEELi1ELb1EE5__getB7v160006Ev, symObjAddr: 0xA620, symBinAddr: 0x10001CC00, symSize: 0x10 }
  - { offsetInCU: 0x214F3, offset: 0x3DB89, size: 0x8, addend: 0x0, symName: __ZNSt3__114__split_bufferIP5ScopeRNS_9allocatorIS2_EEEC2EmmS5_, symObjAddr: 0xA770, symBinAddr: 0x10001CC10, symSize: 0xD0 }
  - { offsetInCU: 0x21567, offset: 0x3DBFD, size: 0x8, addend: 0x0, symName: __ZNSt3__117__compressed_pairIPP5ScopeRNS_9allocatorIS2_EEEC1B7v160006IDnS6_EEOT_OT0_, symObjAddr: 0xA840, symBinAddr: 0x10001CCE0, symSize: 0x30 }
  - { offsetInCU: 0x215BF, offset: 0x3DC55, size: 0x8, addend: 0x0, symName: __ZNSt3__114__split_bufferIP5ScopeRNS_9allocatorIS2_EEE7__allocB7v160006Ev, symObjAddr: 0xA8B0, symBinAddr: 0x10001CD50, symSize: 0x20 }
  - { offsetInCU: 0x215E5, offset: 0x3DC7B, size: 0x8, addend: 0x0, symName: __ZNSt3__114__split_bufferIP5ScopeRNS_9allocatorIS2_EEE9__end_capB7v160006Ev, symObjAddr: 0xA8D0, symBinAddr: 0x10001CD70, symSize: 0x20 }
  - { offsetInCU: 0x2160B, offset: 0x3DCA1, size: 0x8, addend: 0x0, symName: __ZNSt3__117__compressed_pairIPP5ScopeRNS_9allocatorIS2_EEEC2B7v160006IDnS6_EEOT_OT0_, symObjAddr: 0xA8F0, symBinAddr: 0x10001CD90, symSize: 0x40 }
  - { offsetInCU: 0x21663, offset: 0x3DCF9, size: 0x8, addend: 0x0, symName: __ZNSt3__122__compressed_pair_elemIRNS_9allocatorIP5ScopeEELi1ELb0EEC2B7v160006IS5_vEEOT_, symObjAddr: 0xA930, symBinAddr: 0x10001CDD0, symSize: 0x20 }
  - { offsetInCU: 0x216A5, offset: 0x3DD3B, size: 0x8, addend: 0x0, symName: __ZNSt3__19allocatorIP5ScopeE8allocateB7v160006Em, symObjAddr: 0xA950, symBinAddr: 0x10001CDF0, symSize: 0x50 }
  - { offsetInCU: 0x216D9, offset: 0x3DD6F, size: 0x8, addend: 0x0, symName: __ZNSt3__117__compressed_pairIPP5ScopeRNS_9allocatorIS2_EEE6secondB7v160006Ev, symObjAddr: 0xA9A0, symBinAddr: 0x10001CE40, symSize: 0x20 }
  - { offsetInCU: 0x216FF, offset: 0x3DD95, size: 0x8, addend: 0x0, symName: __ZNSt3__122__compressed_pair_elemIRNS_9allocatorIP5ScopeEELi1ELb0EE5__getB7v160006Ev, symObjAddr: 0xA9C0, symBinAddr: 0x10001CE60, symSize: 0x20 }
  - { offsetInCU: 0x21725, offset: 0x3DDBB, size: 0x8, addend: 0x0, symName: __ZNSt3__117__compressed_pairIPP5ScopeRNS_9allocatorIS2_EEE5firstB7v160006Ev, symObjAddr: 0xA9E0, symBinAddr: 0x10001CE80, symSize: 0x20 }
  - { offsetInCU: 0x2174B, offset: 0x3DDE1, size: 0x8, addend: 0x0, symName: __ZNSt3__116reverse_iteratorIPP5ScopeEC1B7v160006ES3_, symObjAddr: 0xAA70, symBinAddr: 0x10001CF10, symSize: 0x30 }
  - { offsetInCU: 0x21783, offset: 0x3DE19, size: 0x8, addend: 0x0, symName: __ZNKSt3__116reverse_iteratorIPP5ScopeE4baseB7v160006Ev, symObjAddr: 0xAAA0, symBinAddr: 0x10001CF40, symSize: 0x20 }
  - { offsetInCU: 0x217A9, offset: 0x3DE3F, size: 0x8, addend: 0x0, symName: __ZNKSt3__16vectorIP5ScopeNS_9allocatorIS2_EEE14__annotate_newB7v160006Em, symObjAddr: 0xAB00, symBinAddr: 0x10001CFA0, symSize: 0xB0 }
  - { offsetInCU: 0x21801, offset: 0x3DE97, size: 0x8, addend: 0x0, symName: __ZNKSt3__111__move_loopINS_17_ClassicAlgPolicyEEclB7v160006INS_16reverse_iteratorIPP5ScopeEES8_S8_EENS_4pairIT_T1_EESA_T0_SB_, symObjAddr: 0xB000, symBinAddr: 0x10001D4A0, symSize: 0xA0 }
  - { offsetInCU: 0x21871, offset: 0x3DF07, size: 0x8, addend: 0x0, symName: __ZNSt3__18_IterOpsINS_17_ClassicAlgPolicyEE11__iter_moveB7v160006IRNS_16reverse_iteratorIPP5ScopeEEEENS_9enable_ifIXsr12is_referenceIDTdeclsr3stdE7declvalIRT_EEEEE5valueEDTclsr3stdE4movedeclsr3stdE7declvalISC_EEEEE4typeEOSB_, symObjAddr: 0xB220, symBinAddr: 0x10001D6C0, symSize: 0x20 }
  - { offsetInCU: 0x2189D, offset: 0x3DF33, size: 0x8, addend: 0x0, symName: __ZNKSt3__116reverse_iteratorIPP5ScopeEdeB7v160006Ev, symObjAddr: 0xB240, symBinAddr: 0x10001D6E0, symSize: 0x30 }
  - { offsetInCU: 0x218D1, offset: 0x3DF67, size: 0x8, addend: 0x0, symName: __ZNSt3__116reverse_iteratorIPP5ScopeEppB7v160006Ev, symObjAddr: 0xB270, symBinAddr: 0x10001D710, symSize: 0x20 }
  - { offsetInCU: 0x218F7, offset: 0x3DF8D, size: 0x8, addend: 0x0, symName: __ZNSt3__18_IterOpsINS_17_ClassicAlgPolicyEE25__validate_iter_referenceB7v160006IRNS_16reverse_iteratorIPP5ScopeEEEEvv, symObjAddr: 0xB290, symBinAddr: 0x10001D730, symSize: 0x10 }
  - { offsetInCU: 0x21915, offset: 0x3DFAB, size: 0x8, addend: 0x0, symName: __ZNSt3__118__unwrap_iter_implINS_16reverse_iteratorIPP5ScopeEELb0EE8__unwrapB7v160006ES5_, symObjAddr: 0xB2A0, symBinAddr: 0x10001D740, symSize: 0x20 }
  - { offsetInCU: 0x2193D, offset: 0x3DFD3, size: 0x8, addend: 0x0, symName: __ZNSt3__14pairINS_16reverse_iteratorIPP5ScopeEES5_EC1B7v160006IS5_S5_LPv0EEEOT_OT0_, symObjAddr: 0xB2C0, symBinAddr: 0x10001D760, symSize: 0x30 }
  - { offsetInCU: 0x2199B, offset: 0x3E031, size: 0x8, addend: 0x0, symName: __ZNSt3__14pairINS_16reverse_iteratorIPP5ScopeEES5_EC2B7v160006IS5_S5_LPv0EEEOT_OT0_, symObjAddr: 0xB2F0, symBinAddr: 0x10001D790, symSize: 0x40 }
  - { offsetInCU: 0x219F9, offset: 0x3E08F, size: 0x8, addend: 0x0, symName: __ZNSt3__118__unwrap_iter_implINS_16reverse_iteratorIPP5ScopeEELb0EE8__rewrapB7v160006ES5_S5_, symObjAddr: 0xB330, symBinAddr: 0x10001D7D0, symSize: 0x30 }
  - { offsetInCU: 0x21A27, offset: 0x3E0BD, size: 0x8, addend: 0x0, symName: __ZNSt3__116reverse_iteratorIPP5ScopeEC2B7v160006ES3_, symObjAddr: 0xB360, symBinAddr: 0x10001D800, symSize: 0x30 }
  - { offsetInCU: 0x21A5F, offset: 0x3E0F5, size: 0x8, addend: 0x0, symName: __ZNSt3__114__split_bufferIP5ScopeRNS_9allocatorIS2_EEED2Ev, symObjAddr: 0xB390, symBinAddr: 0x10001D830, symSize: 0x70 }
  - { offsetInCU: 0x21A8B, offset: 0x3E121, size: 0x8, addend: 0x0, symName: __ZNSt3__114__split_bufferIP5ScopeRNS_9allocatorIS2_EEE5clearB7v160006Ev, symObjAddr: 0xB400, symBinAddr: 0x10001D8A0, symSize: 0x20 }
  - { offsetInCU: 0x21AB1, offset: 0x3E147, size: 0x8, addend: 0x0, symName: __ZNKSt3__114__split_bufferIP5ScopeRNS_9allocatorIS2_EEE8capacityB7v160006Ev, symObjAddr: 0xB420, symBinAddr: 0x10001D8C0, symSize: 0x30 }
  - { offsetInCU: 0x21AD7, offset: 0x3E16D, size: 0x8, addend: 0x0, symName: __ZNSt3__114__split_bufferIP5ScopeRNS_9allocatorIS2_EEE17__destruct_at_endB7v160006EPS2_, symObjAddr: 0xB450, symBinAddr: 0x10001D8F0, symSize: 0x30 }
  - { offsetInCU: 0x21B0B, offset: 0x3E1A1, size: 0x8, addend: 0x0, symName: __ZNSt3__114__split_bufferIP5ScopeRNS_9allocatorIS2_EEE17__destruct_at_endB7v160006EPS2_NS_17integral_constantIbLb0EEE, symObjAddr: 0xB480, symBinAddr: 0x10001D920, symSize: 0x80 }
  - { offsetInCU: 0x21B4C, offset: 0x3E1E2, size: 0x8, addend: 0x0, symName: __ZNKSt3__114__split_bufferIP5ScopeRNS_9allocatorIS2_EEE9__end_capB7v160006Ev, symObjAddr: 0xB500, symBinAddr: 0x10001D9A0, symSize: 0x20 }
  - { offsetInCU: 0x21B72, offset: 0x3E208, size: 0x8, addend: 0x0, symName: __ZNKSt3__117__compressed_pairIPP5ScopeRNS_9allocatorIS2_EEE5firstB7v160006Ev, symObjAddr: 0xB520, symBinAddr: 0x10001D9C0, symSize: 0x20 }
  - { offsetInCU: 0x21B98, offset: 0x3E22E, size: 0x8, addend: 0x0, symName: __ZN8VariableC2Ev, symObjAddr: 0xB540, symBinAddr: 0x10001D9E0, symSize: 0x70 }
  - { offsetInCU: 0x21BC2, offset: 0x3E258, size: 0x8, addend: 0x0, symName: __ZN8VariableD1Ev, symObjAddr: 0xB5B0, symBinAddr: 0x10001DA50, symSize: 0x20 }
  - { offsetInCU: 0x21BEE, offset: 0x3E284, size: 0x8, addend: 0x0, symName: __ZN8VariableD0Ev, symObjAddr: 0xB5D0, symBinAddr: 0x10001DA70, symSize: 0x30 }
  - { offsetInCU: 0x21C1A, offset: 0x3E2B0, size: 0x8, addend: 0x0, symName: __ZN8VariableD2Ev, symObjAddr: 0xB600, symBinAddr: 0x10001DAA0, symSize: 0x20 }
  - { offsetInCU: 0x21C46, offset: 0x3E2DC, size: 0x8, addend: 0x0, symName: __ZNKSt3__14listIP4NodeNS_9allocatorIS2_EEE4sizeB7v160006Ev, symObjAddr: 0xB620, symBinAddr: 0x10001DAC0, symSize: 0x20 }
  - { offsetInCU: 0x21C6C, offset: 0x3E302, size: 0x8, addend: 0x0, symName: __ZN6MethodC1Ev, symObjAddr: 0xB640, symBinAddr: 0x10001DAE0, symSize: 0x20 }
  - { offsetInCU: 0x21C96, offset: 0x3E32C, size: 0x8, addend: 0x0, symName: __ZNSt3__14listIP4NodeNS_9allocatorIS2_EEE5frontB7v160006Ev, symObjAddr: 0xB660, symBinAddr: 0x10001DB00, symSize: 0x30 }
  - { offsetInCU: 0x21CBC, offset: 0x3E352, size: 0x8, addend: 0x0, symName: __ZNSt3__16vectorIP6MethodNS_9allocatorIS2_EEE9push_backB7v160006ERKS2_, symObjAddr: 0xB690, symBinAddr: 0x10001DB30, symSize: 0x60 }
  - { offsetInCU: 0x21CF3, offset: 0x3E389, size: 0x8, addend: 0x0, symName: __ZNSt3__16vectorIP8VariableNS_9allocatorIS2_EEE9push_backB7v160006EOS2_, symObjAddr: 0xB6F0, symBinAddr: 0x10001DB90, symSize: 0x60 }
  - { offsetInCU: 0x21D2A, offset: 0x3E3C0, size: 0x8, addend: 0x0, symName: __ZNSt3__14listIP4NodeNS_9allocatorIS2_EEE4backB7v160006Ev, symObjAddr: 0xB750, symBinAddr: 0x10001DBF0, symSize: 0x30 }
  - { offsetInCU: 0x21D50, offset: 0x3E3E6, size: 0x8, addend: 0x0, symName: __ZN6MethodC2Ev, symObjAddr: 0xB780, symBinAddr: 0x10001DC20, symSize: 0xA0 }
  - { offsetInCU: 0x21D7A, offset: 0x3E410, size: 0x8, addend: 0x0, symName: __ZN6MethodD1Ev, symObjAddr: 0xB820, symBinAddr: 0x10001DCC0, symSize: 0x20 }
  - { offsetInCU: 0x21DA6, offset: 0x3E43C, size: 0x8, addend: 0x0, symName: __ZN6MethodD0Ev, symObjAddr: 0xB840, symBinAddr: 0x10001DCE0, symSize: 0x30 }
  - { offsetInCU: 0x21DD2, offset: 0x3E468, size: 0x8, addend: 0x0, symName: __ZN6MethodD2Ev, symObjAddr: 0xB870, symBinAddr: 0x10001DD10, symSize: 0x50 }
  - { offsetInCU: 0x21DFE, offset: 0x3E494, size: 0x8, addend: 0x0, symName: __ZNSt3__16vectorIP6MethodNS_9allocatorIS2_EEE9__end_capB7v160006Ev, symObjAddr: 0xB8C0, symBinAddr: 0x10001DD60, symSize: 0x20 }
  - { offsetInCU: 0x21E24, offset: 0x3E4BA, size: 0x8, addend: 0x0, symName: __ZNSt3__16vectorIP6MethodNS_9allocatorIS2_EEE22__construct_one_at_endB7v160006IJRKS2_EEEvDpOT_, symObjAddr: 0xB8E0, symBinAddr: 0x10001DD80, symSize: 0x90 }
  - { offsetInCU: 0x21E73, offset: 0x3E509, size: 0x8, addend: 0x0, symName: __ZNSt3__16vectorIP6MethodNS_9allocatorIS2_EEE21__push_back_slow_pathIRKS2_EEvOT_, symObjAddr: 0xB970, symBinAddr: 0x10001DE10, symSize: 0xD0 }
  - { offsetInCU: 0x21ED1, offset: 0x3E567, size: 0x8, addend: 0x0, symName: __ZNSt3__117__compressed_pairIPP6MethodNS_9allocatorIS2_EEE5firstB7v160006Ev, symObjAddr: 0xBA40, symBinAddr: 0x10001DEE0, symSize: 0x20 }
  - { offsetInCU: 0x21EF7, offset: 0x3E58D, size: 0x8, addend: 0x0, symName: __ZNSt3__122__compressed_pair_elemIPP6MethodLi0ELb0EE5__getB7v160006Ev, symObjAddr: 0xBA60, symBinAddr: 0x10001DF00, symSize: 0x10 }
  - { offsetInCU: 0x21F36, offset: 0x3E5CC, size: 0x8, addend: 0x0, symName: __ZNSt3__16vectorIP6MethodNS_9allocatorIS2_EEE21_ConstructTransactionC1B7v160006ERS5_m, symObjAddr: 0xBA70, symBinAddr: 0x10001DF10, symSize: 0x30 }
  - { offsetInCU: 0x21F7E, offset: 0x3E614, size: 0x8, addend: 0x0, symName: __ZNSt3__116allocator_traitsINS_9allocatorIP6MethodEEE9constructB7v160006IS3_JRKS3_EvEEvRS4_PT_DpOT0_, symObjAddr: 0xBAA0, symBinAddr: 0x10001DF40, symSize: 0x30 }
  - { offsetInCU: 0x21FD5, offset: 0x3E66B, size: 0x8, addend: 0x0, symName: __ZNSt3__16vectorIP6MethodNS_9allocatorIS2_EEE21_ConstructTransactionD1B7v160006Ev, symObjAddr: 0xBAD0, symBinAddr: 0x10001DF70, symSize: 0x20 }
  - { offsetInCU: 0x21FFF, offset: 0x3E695, size: 0x8, addend: 0x0, symName: __ZNSt3__16vectorIP6MethodNS_9allocatorIS2_EEE21_ConstructTransactionC2B7v160006ERS5_m, symObjAddr: 0xBAF0, symBinAddr: 0x10001DF90, symSize: 0x40 }
  - { offsetInCU: 0x22047, offset: 0x3E6DD, size: 0x8, addend: 0x0, symName: __ZNSt3__19allocatorIP6MethodE9constructB7v160006IS2_JRKS2_EEEvPT_DpOT0_, symObjAddr: 0xBB30, symBinAddr: 0x10001DFD0, symSize: 0x20 }
  - { offsetInCU: 0x2209D, offset: 0x3E733, size: 0x8, addend: 0x0, symName: __ZNSt3__16vectorIP6MethodNS_9allocatorIS2_EEE21_ConstructTransactionD2B7v160006Ev, symObjAddr: 0xBB50, symBinAddr: 0x10001DFF0, symSize: 0x20 }
  - { offsetInCU: 0x220C7, offset: 0x3E75D, size: 0x8, addend: 0x0, symName: __ZNKSt3__16vectorIP6MethodNS_9allocatorIS2_EEE11__recommendB7v160006Em, symObjAddr: 0xBB70, symBinAddr: 0x10001E010, symSize: 0xA0 }
  - { offsetInCU: 0x2211C, offset: 0x3E7B2, size: 0x8, addend: 0x0, symName: __ZNSt3__114__split_bufferIP6MethodRNS_9allocatorIS2_EEEC1EmmS5_, symObjAddr: 0xBC10, symBinAddr: 0x10001E0B0, symSize: 0x40 }
  - { offsetInCU: 0x22172, offset: 0x3E808, size: 0x8, addend: 0x0, symName: __ZNSt3__114__split_bufferIP6MethodRNS_9allocatorIS2_EEED1Ev, symObjAddr: 0xBD80, symBinAddr: 0x10001E220, symSize: 0x20 }
  - { offsetInCU: 0x2219E, offset: 0x3E834, size: 0x8, addend: 0x0, symName: __ZNKSt3__16vectorIP6MethodNS_9allocatorIS2_EEE8max_sizeEv, symObjAddr: 0xBDA0, symBinAddr: 0x10001E240, symSize: 0x60 }
  - { offsetInCU: 0x221C6, offset: 0x3E85C, size: 0x8, addend: 0x0, symName: __ZNKSt3__16vectorIP6MethodNS_9allocatorIS2_EEE20__throw_length_errorB7v160006Ev, symObjAddr: 0xBE00, symBinAddr: 0x10001E2A0, symSize: 0x20 }
  - { offsetInCU: 0x221F6, offset: 0x3E88C, size: 0x8, addend: 0x0, symName: __ZNSt3__116allocator_traitsINS_9allocatorIP6MethodEEE8max_sizeB7v160006IS4_vEEmRKS4_, symObjAddr: 0xBE20, symBinAddr: 0x10001E2C0, symSize: 0x20 }
  - { offsetInCU: 0x22224, offset: 0x3E8BA, size: 0x8, addend: 0x0, symName: __ZNKSt3__16vectorIP6MethodNS_9allocatorIS2_EEE7__allocB7v160006Ev, symObjAddr: 0xBE40, symBinAddr: 0x10001E2E0, symSize: 0x20 }
  - { offsetInCU: 0x2224A, offset: 0x3E8E0, size: 0x8, addend: 0x0, symName: __ZNKSt3__19allocatorIP6MethodE8max_sizeB7v160006Ev, symObjAddr: 0xBE60, symBinAddr: 0x10001E300, symSize: 0x20 }
  - { offsetInCU: 0x22270, offset: 0x3E906, size: 0x8, addend: 0x0, symName: __ZNKSt3__117__compressed_pairIPP6MethodNS_9allocatorIS2_EEE6secondB7v160006Ev, symObjAddr: 0xBE80, symBinAddr: 0x10001E320, symSize: 0x20 }
  - { offsetInCU: 0x22296, offset: 0x3E92C, size: 0x8, addend: 0x0, symName: __ZNKSt3__122__compressed_pair_elemINS_9allocatorIP6MethodEELi1ELb1EE5__getB7v160006Ev, symObjAddr: 0xBEA0, symBinAddr: 0x10001E340, symSize: 0x10 }
  - { offsetInCU: 0x222BC, offset: 0x3E952, size: 0x8, addend: 0x0, symName: __ZNSt3__114__split_bufferIP6MethodRNS_9allocatorIS2_EEEC2EmmS5_, symObjAddr: 0xBEB0, symBinAddr: 0x10001E350, symSize: 0xD0 }
  - { offsetInCU: 0x22330, offset: 0x3E9C6, size: 0x8, addend: 0x0, symName: __ZNSt3__117__compressed_pairIPP6MethodRNS_9allocatorIS2_EEEC1B7v160006IDnS6_EEOT_OT0_, symObjAddr: 0xBF80, symBinAddr: 0x10001E420, symSize: 0x30 }
  - { offsetInCU: 0x22388, offset: 0x3EA1E, size: 0x8, addend: 0x0, symName: __ZNSt3__114__split_bufferIP6MethodRNS_9allocatorIS2_EEE7__allocB7v160006Ev, symObjAddr: 0xBFF0, symBinAddr: 0x10001E490, symSize: 0x20 }
  - { offsetInCU: 0x223AE, offset: 0x3EA44, size: 0x8, addend: 0x0, symName: __ZNSt3__114__split_bufferIP6MethodRNS_9allocatorIS2_EEE9__end_capB7v160006Ev, symObjAddr: 0xC010, symBinAddr: 0x10001E4B0, symSize: 0x20 }
  - { offsetInCU: 0x223D4, offset: 0x3EA6A, size: 0x8, addend: 0x0, symName: __ZNSt3__117__compressed_pairIPP6MethodRNS_9allocatorIS2_EEEC2B7v160006IDnS6_EEOT_OT0_, symObjAddr: 0xC030, symBinAddr: 0x10001E4D0, symSize: 0x40 }
  - { offsetInCU: 0x2242C, offset: 0x3EAC2, size: 0x8, addend: 0x0, symName: __ZNSt3__122__compressed_pair_elemIRNS_9allocatorIP6MethodEELi1ELb0EEC2B7v160006IS5_vEEOT_, symObjAddr: 0xC070, symBinAddr: 0x10001E510, symSize: 0x20 }
  - { offsetInCU: 0x2246E, offset: 0x3EB04, size: 0x8, addend: 0x0, symName: __ZNSt3__19allocatorIP6MethodE8allocateB7v160006Em, symObjAddr: 0xC090, symBinAddr: 0x10001E530, symSize: 0x50 }
  - { offsetInCU: 0x224A2, offset: 0x3EB38, size: 0x8, addend: 0x0, symName: __ZNSt3__117__compressed_pairIPP6MethodRNS_9allocatorIS2_EEE6secondB7v160006Ev, symObjAddr: 0xC0E0, symBinAddr: 0x10001E580, symSize: 0x20 }
  - { offsetInCU: 0x224C8, offset: 0x3EB5E, size: 0x8, addend: 0x0, symName: __ZNSt3__122__compressed_pair_elemIRNS_9allocatorIP6MethodEELi1ELb0EE5__getB7v160006Ev, symObjAddr: 0xC100, symBinAddr: 0x10001E5A0, symSize: 0x20 }
  - { offsetInCU: 0x224EE, offset: 0x3EB84, size: 0x8, addend: 0x0, symName: __ZNSt3__117__compressed_pairIPP6MethodRNS_9allocatorIS2_EEE5firstB7v160006Ev, symObjAddr: 0xC120, symBinAddr: 0x10001E5C0, symSize: 0x20 }
  - { offsetInCU: 0x22514, offset: 0x3EBAA, size: 0x8, addend: 0x0, symName: __ZNSt3__116reverse_iteratorIPP6MethodEC1B7v160006ES3_, symObjAddr: 0xC1B0, symBinAddr: 0x10001E650, symSize: 0x30 }
  - { offsetInCU: 0x2254C, offset: 0x3EBE2, size: 0x8, addend: 0x0, symName: __ZNKSt3__116reverse_iteratorIPP6MethodE4baseB7v160006Ev, symObjAddr: 0xC1E0, symBinAddr: 0x10001E680, symSize: 0x20 }
  - { offsetInCU: 0x22572, offset: 0x3EC08, size: 0x8, addend: 0x0, symName: __ZNKSt3__16vectorIP6MethodNS_9allocatorIS2_EEE14__annotate_newB7v160006Em, symObjAddr: 0xC240, symBinAddr: 0x10001E6E0, symSize: 0xB0 }
  - { offsetInCU: 0x225C0, offset: 0x3EC56, size: 0x8, addend: 0x0, symName: __ZNKSt3__111__move_loopINS_17_ClassicAlgPolicyEEclB7v160006INS_16reverse_iteratorIPP6MethodEES8_S8_EENS_4pairIT_T1_EESA_T0_SB_, symObjAddr: 0xC740, symBinAddr: 0x10001EBE0, symSize: 0xA0 }
  - { offsetInCU: 0x22630, offset: 0x3ECC6, size: 0x8, addend: 0x0, symName: __ZNSt3__18_IterOpsINS_17_ClassicAlgPolicyEE11__iter_moveB7v160006IRNS_16reverse_iteratorIPP6MethodEEEENS_9enable_ifIXsr12is_referenceIDTdeclsr3stdE7declvalIRT_EEEEE5valueEDTclsr3stdE4movedeclsr3stdE7declvalISC_EEEEE4typeEOSB_, symObjAddr: 0xC960, symBinAddr: 0x10001EE00, symSize: 0x20 }
  - { offsetInCU: 0x2265C, offset: 0x3ECF2, size: 0x8, addend: 0x0, symName: __ZNKSt3__116reverse_iteratorIPP6MethodEdeB7v160006Ev, symObjAddr: 0xC980, symBinAddr: 0x10001EE20, symSize: 0x30 }
  - { offsetInCU: 0x22690, offset: 0x3ED26, size: 0x8, addend: 0x0, symName: __ZNSt3__116reverse_iteratorIPP6MethodEppB7v160006Ev, symObjAddr: 0xC9B0, symBinAddr: 0x10001EE50, symSize: 0x20 }
  - { offsetInCU: 0x226B6, offset: 0x3ED4C, size: 0x8, addend: 0x0, symName: __ZNSt3__18_IterOpsINS_17_ClassicAlgPolicyEE25__validate_iter_referenceB7v160006IRNS_16reverse_iteratorIPP6MethodEEEEvv, symObjAddr: 0xC9D0, symBinAddr: 0x10001EE70, symSize: 0x10 }
  - { offsetInCU: 0x226D4, offset: 0x3ED6A, size: 0x8, addend: 0x0, symName: __ZNSt3__118__unwrap_iter_implINS_16reverse_iteratorIPP6MethodEELb0EE8__unwrapB7v160006ES5_, symObjAddr: 0xC9E0, symBinAddr: 0x10001EE80, symSize: 0x20 }
  - { offsetInCU: 0x226FC, offset: 0x3ED92, size: 0x8, addend: 0x0, symName: __ZNSt3__14pairINS_16reverse_iteratorIPP6MethodEES5_EC1B7v160006IS5_S5_LPv0EEEOT_OT0_, symObjAddr: 0xCA00, symBinAddr: 0x10001EEA0, symSize: 0x30 }
  - { offsetInCU: 0x2275A, offset: 0x3EDF0, size: 0x8, addend: 0x0, symName: __ZNSt3__14pairINS_16reverse_iteratorIPP6MethodEES5_EC2B7v160006IS5_S5_LPv0EEEOT_OT0_, symObjAddr: 0xCA30, symBinAddr: 0x10001EED0, symSize: 0x40 }
  - { offsetInCU: 0x227B8, offset: 0x3EE4E, size: 0x8, addend: 0x0, symName: __ZNSt3__118__unwrap_iter_implINS_16reverse_iteratorIPP6MethodEELb0EE8__rewrapB7v160006ES5_S5_, symObjAddr: 0xCA70, symBinAddr: 0x10001EF10, symSize: 0x30 }
  - { offsetInCU: 0x227E6, offset: 0x3EE7C, size: 0x8, addend: 0x0, symName: __ZNSt3__116reverse_iteratorIPP6MethodEC2B7v160006ES3_, symObjAddr: 0xCAA0, symBinAddr: 0x10001EF40, symSize: 0x30 }
  - { offsetInCU: 0x2281E, offset: 0x3EEB4, size: 0x8, addend: 0x0, symName: __ZNSt3__114__split_bufferIP6MethodRNS_9allocatorIS2_EEED2Ev, symObjAddr: 0xCAD0, symBinAddr: 0x10001EF70, symSize: 0x70 }
  - { offsetInCU: 0x2284A, offset: 0x3EEE0, size: 0x8, addend: 0x0, symName: __ZNSt3__114__split_bufferIP6MethodRNS_9allocatorIS2_EEE5clearB7v160006Ev, symObjAddr: 0xCB40, symBinAddr: 0x10001EFE0, symSize: 0x20 }
  - { offsetInCU: 0x22870, offset: 0x3EF06, size: 0x8, addend: 0x0, symName: __ZNKSt3__114__split_bufferIP6MethodRNS_9allocatorIS2_EEE8capacityB7v160006Ev, symObjAddr: 0xCB60, symBinAddr: 0x10001F000, symSize: 0x30 }
  - { offsetInCU: 0x22896, offset: 0x3EF2C, size: 0x8, addend: 0x0, symName: __ZNSt3__114__split_bufferIP6MethodRNS_9allocatorIS2_EEE17__destruct_at_endB7v160006EPS2_, symObjAddr: 0xCB90, symBinAddr: 0x10001F030, symSize: 0x30 }
  - { offsetInCU: 0x228CA, offset: 0x3EF60, size: 0x8, addend: 0x0, symName: __ZNSt3__114__split_bufferIP6MethodRNS_9allocatorIS2_EEE17__destruct_at_endB7v160006EPS2_NS_17integral_constantIbLb0EEE, symObjAddr: 0xCBC0, symBinAddr: 0x10001F060, symSize: 0x80 }
  - { offsetInCU: 0x2290B, offset: 0x3EFA1, size: 0x8, addend: 0x0, symName: __ZNKSt3__114__split_bufferIP6MethodRNS_9allocatorIS2_EEE9__end_capB7v160006Ev, symObjAddr: 0xCC40, symBinAddr: 0x10001F0E0, symSize: 0x20 }
  - { offsetInCU: 0x22931, offset: 0x3EFC7, size: 0x8, addend: 0x0, symName: __ZNKSt3__117__compressed_pairIPP6MethodRNS_9allocatorIS2_EEE5firstB7v160006Ev, symObjAddr: 0xCC60, symBinAddr: 0x10001F100, symSize: 0x20 }
  - { offsetInCU: 0x22957, offset: 0x3EFED, size: 0x8, addend: 0x0, symName: __ZNSt3__16vectorIP8VariableNS_9allocatorIS2_EEE9__end_capB7v160006Ev, symObjAddr: 0xCC80, symBinAddr: 0x10001F120, symSize: 0x20 }
  - { offsetInCU: 0x22982, offset: 0x3F018, size: 0x8, addend: 0x0, symName: __ZNSt3__16vectorIP8VariableNS_9allocatorIS2_EEE22__construct_one_at_endB7v160006IJS2_EEEvDpOT_, symObjAddr: 0xCCA0, symBinAddr: 0x10001F140, symSize: 0x90 }
  - { offsetInCU: 0x229D1, offset: 0x3F067, size: 0x8, addend: 0x0, symName: __ZNSt3__16vectorIP8VariableNS_9allocatorIS2_EEE21__push_back_slow_pathIS2_EEvOT_, symObjAddr: 0xCD30, symBinAddr: 0x10001F1D0, symSize: 0xD0 }
  - { offsetInCU: 0x22A2F, offset: 0x3F0C5, size: 0x8, addend: 0x0, symName: __ZNSt3__117__compressed_pairIPP8VariableNS_9allocatorIS2_EEE5firstB7v160006Ev, symObjAddr: 0xCE00, symBinAddr: 0x10001F2A0, symSize: 0x20 }
  - { offsetInCU: 0x22A55, offset: 0x3F0EB, size: 0x8, addend: 0x0, symName: __ZNSt3__122__compressed_pair_elemIPP8VariableLi0ELb0EE5__getB7v160006Ev, symObjAddr: 0xCE20, symBinAddr: 0x10001F2C0, symSize: 0x10 }
  - { offsetInCU: 0x22A94, offset: 0x3F12A, size: 0x8, addend: 0x0, symName: __ZNSt3__16vectorIP8VariableNS_9allocatorIS2_EEE21_ConstructTransactionC1B7v160006ERS5_m, symObjAddr: 0xCE30, symBinAddr: 0x10001F2D0, symSize: 0x30 }
  - { offsetInCU: 0x22ADC, offset: 0x3F172, size: 0x8, addend: 0x0, symName: __ZNSt3__116allocator_traitsINS_9allocatorIP8VariableEEE9constructB7v160006IS3_JS3_EvEEvRS4_PT_DpOT0_, symObjAddr: 0xCE60, symBinAddr: 0x10001F300, symSize: 0x30 }
  - { offsetInCU: 0x22B33, offset: 0x3F1C9, size: 0x8, addend: 0x0, symName: __ZNSt3__16vectorIP8VariableNS_9allocatorIS2_EEE21_ConstructTransactionD1B7v160006Ev, symObjAddr: 0xCE90, symBinAddr: 0x10001F330, symSize: 0x20 }
  - { offsetInCU: 0x22B5D, offset: 0x3F1F3, size: 0x8, addend: 0x0, symName: __ZNSt3__16vectorIP8VariableNS_9allocatorIS2_EEE21_ConstructTransactionC2B7v160006ERS5_m, symObjAddr: 0xCEB0, symBinAddr: 0x10001F350, symSize: 0x40 }
  - { offsetInCU: 0x22BA5, offset: 0x3F23B, size: 0x8, addend: 0x0, symName: __ZNSt3__19allocatorIP8VariableE9constructB7v160006IS2_JS2_EEEvPT_DpOT0_, symObjAddr: 0xCEF0, symBinAddr: 0x10001F390, symSize: 0x20 }
  - { offsetInCU: 0x22BFB, offset: 0x3F291, size: 0x8, addend: 0x0, symName: __ZNSt3__16vectorIP8VariableNS_9allocatorIS2_EEE21_ConstructTransactionD2B7v160006Ev, symObjAddr: 0xCF10, symBinAddr: 0x10001F3B0, symSize: 0x20 }
  - { offsetInCU: 0x22C25, offset: 0x3F2BB, size: 0x8, addend: 0x0, symName: __ZNKSt3__16vectorIP8VariableNS_9allocatorIS2_EEE11__recommendB7v160006Em, symObjAddr: 0xCF30, symBinAddr: 0x10001F3D0, symSize: 0xA0 }
  - { offsetInCU: 0x22C7A, offset: 0x3F310, size: 0x8, addend: 0x0, symName: __ZNSt3__114__split_bufferIP8VariableRNS_9allocatorIS2_EEEC1EmmS5_, symObjAddr: 0xCFD0, symBinAddr: 0x10001F470, symSize: 0x40 }
  - { offsetInCU: 0x22CD0, offset: 0x3F366, size: 0x8, addend: 0x0, symName: __ZNSt3__114__split_bufferIP8VariableRNS_9allocatorIS2_EEED1Ev, symObjAddr: 0xD140, symBinAddr: 0x10001F5E0, symSize: 0x20 }
  - { offsetInCU: 0x22CFC, offset: 0x3F392, size: 0x8, addend: 0x0, symName: __ZNKSt3__16vectorIP8VariableNS_9allocatorIS2_EEE8max_sizeEv, symObjAddr: 0xD160, symBinAddr: 0x10001F600, symSize: 0x60 }
  - { offsetInCU: 0x22D24, offset: 0x3F3BA, size: 0x8, addend: 0x0, symName: __ZNKSt3__16vectorIP8VariableNS_9allocatorIS2_EEE20__throw_length_errorB7v160006Ev, symObjAddr: 0xD1C0, symBinAddr: 0x10001F660, symSize: 0x20 }
  - { offsetInCU: 0x22D54, offset: 0x3F3EA, size: 0x8, addend: 0x0, symName: __ZNSt3__116allocator_traitsINS_9allocatorIP8VariableEEE8max_sizeB7v160006IS4_vEEmRKS4_, symObjAddr: 0xD1E0, symBinAddr: 0x10001F680, symSize: 0x20 }
  - { offsetInCU: 0x22D82, offset: 0x3F418, size: 0x8, addend: 0x0, symName: __ZNKSt3__16vectorIP8VariableNS_9allocatorIS2_EEE7__allocB7v160006Ev, symObjAddr: 0xD200, symBinAddr: 0x10001F6A0, symSize: 0x20 }
  - { offsetInCU: 0x22DA8, offset: 0x3F43E, size: 0x8, addend: 0x0, symName: __ZNKSt3__19allocatorIP8VariableE8max_sizeB7v160006Ev, symObjAddr: 0xD220, symBinAddr: 0x10001F6C0, symSize: 0x20 }
  - { offsetInCU: 0x22DCE, offset: 0x3F464, size: 0x8, addend: 0x0, symName: __ZNKSt3__117__compressed_pairIPP8VariableNS_9allocatorIS2_EEE6secondB7v160006Ev, symObjAddr: 0xD240, symBinAddr: 0x10001F6E0, symSize: 0x20 }
  - { offsetInCU: 0x22DF4, offset: 0x3F48A, size: 0x8, addend: 0x0, symName: __ZNKSt3__122__compressed_pair_elemINS_9allocatorIP8VariableEELi1ELb1EE5__getB7v160006Ev, symObjAddr: 0xD260, symBinAddr: 0x10001F700, symSize: 0x10 }
  - { offsetInCU: 0x22E1A, offset: 0x3F4B0, size: 0x8, addend: 0x0, symName: __ZNSt3__114__split_bufferIP8VariableRNS_9allocatorIS2_EEEC2EmmS5_, symObjAddr: 0xD270, symBinAddr: 0x10001F710, symSize: 0xD0 }
  - { offsetInCU: 0x22E8E, offset: 0x3F524, size: 0x8, addend: 0x0, symName: __ZNSt3__117__compressed_pairIPP8VariableRNS_9allocatorIS2_EEEC1B7v160006IDnS6_EEOT_OT0_, symObjAddr: 0xD340, symBinAddr: 0x10001F7E0, symSize: 0x30 }
  - { offsetInCU: 0x22EE6, offset: 0x3F57C, size: 0x8, addend: 0x0, symName: __ZNSt3__114__split_bufferIP8VariableRNS_9allocatorIS2_EEE7__allocB7v160006Ev, symObjAddr: 0xD3B0, symBinAddr: 0x10001F850, symSize: 0x20 }
  - { offsetInCU: 0x22F0C, offset: 0x3F5A2, size: 0x8, addend: 0x0, symName: __ZNSt3__114__split_bufferIP8VariableRNS_9allocatorIS2_EEE9__end_capB7v160006Ev, symObjAddr: 0xD3D0, symBinAddr: 0x10001F870, symSize: 0x20 }
  - { offsetInCU: 0x22F32, offset: 0x3F5C8, size: 0x8, addend: 0x0, symName: __ZNSt3__117__compressed_pairIPP8VariableRNS_9allocatorIS2_EEEC2B7v160006IDnS6_EEOT_OT0_, symObjAddr: 0xD3F0, symBinAddr: 0x10001F890, symSize: 0x40 }
  - { offsetInCU: 0x22F8A, offset: 0x3F620, size: 0x8, addend: 0x0, symName: __ZNSt3__122__compressed_pair_elemIRNS_9allocatorIP8VariableEELi1ELb0EEC2B7v160006IS5_vEEOT_, symObjAddr: 0xD430, symBinAddr: 0x10001F8D0, symSize: 0x20 }
  - { offsetInCU: 0x22FCC, offset: 0x3F662, size: 0x8, addend: 0x0, symName: __ZNSt3__19allocatorIP8VariableE8allocateB7v160006Em, symObjAddr: 0xD450, symBinAddr: 0x10001F8F0, symSize: 0x50 }
  - { offsetInCU: 0x23000, offset: 0x3F696, size: 0x8, addend: 0x0, symName: __ZNSt3__117__compressed_pairIPP8VariableRNS_9allocatorIS2_EEE6secondB7v160006Ev, symObjAddr: 0xD4A0, symBinAddr: 0x10001F940, symSize: 0x20 }
  - { offsetInCU: 0x23026, offset: 0x3F6BC, size: 0x8, addend: 0x0, symName: __ZNSt3__122__compressed_pair_elemIRNS_9allocatorIP8VariableEELi1ELb0EE5__getB7v160006Ev, symObjAddr: 0xD4C0, symBinAddr: 0x10001F960, symSize: 0x20 }
  - { offsetInCU: 0x2304C, offset: 0x3F6E2, size: 0x8, addend: 0x0, symName: __ZNSt3__117__compressed_pairIPP8VariableRNS_9allocatorIS2_EEE5firstB7v160006Ev, symObjAddr: 0xD4E0, symBinAddr: 0x10001F980, symSize: 0x20 }
  - { offsetInCU: 0x23072, offset: 0x3F708, size: 0x8, addend: 0x0, symName: __ZNSt3__116reverse_iteratorIPP8VariableEC1B7v160006ES3_, symObjAddr: 0xD570, symBinAddr: 0x10001FA10, symSize: 0x30 }
  - { offsetInCU: 0x230AA, offset: 0x3F740, size: 0x8, addend: 0x0, symName: __ZNKSt3__116reverse_iteratorIPP8VariableE4baseB7v160006Ev, symObjAddr: 0xD5A0, symBinAddr: 0x10001FA40, symSize: 0x20 }
  - { offsetInCU: 0x230D0, offset: 0x3F766, size: 0x8, addend: 0x0, symName: __ZNKSt3__16vectorIP8VariableNS_9allocatorIS2_EEE14__annotate_newB7v160006Em, symObjAddr: 0xD600, symBinAddr: 0x10001FAA0, symSize: 0xB0 }
  - { offsetInCU: 0x2311E, offset: 0x3F7B4, size: 0x8, addend: 0x0, symName: __ZNKSt3__111__move_loopINS_17_ClassicAlgPolicyEEclB7v160006INS_16reverse_iteratorIPP8VariableEES8_S8_EENS_4pairIT_T1_EESA_T0_SB_, symObjAddr: 0xDB00, symBinAddr: 0x10001FFA0, symSize: 0xA0 }
  - { offsetInCU: 0x23189, offset: 0x3F81F, size: 0x8, addend: 0x0, symName: __ZNSt3__18_IterOpsINS_17_ClassicAlgPolicyEE11__iter_moveB7v160006IRNS_16reverse_iteratorIPP8VariableEEEENS_9enable_ifIXsr12is_referenceIDTdeclsr3stdE7declvalIRT_EEEEE5valueEDTclsr3stdE4movedeclsr3stdE7declvalISC_EEEEE4typeEOSB_, symObjAddr: 0xDD20, symBinAddr: 0x1000201C0, symSize: 0x20 }
  - { offsetInCU: 0x231B5, offset: 0x3F84B, size: 0x8, addend: 0x0, symName: __ZNKSt3__116reverse_iteratorIPP8VariableEdeB7v160006Ev, symObjAddr: 0xDD40, symBinAddr: 0x1000201E0, symSize: 0x30 }
  - { offsetInCU: 0x231E9, offset: 0x3F87F, size: 0x8, addend: 0x0, symName: __ZNSt3__116reverse_iteratorIPP8VariableEppB7v160006Ev, symObjAddr: 0xDD70, symBinAddr: 0x100020210, symSize: 0x20 }
  - { offsetInCU: 0x2320F, offset: 0x3F8A5, size: 0x8, addend: 0x0, symName: __ZNSt3__18_IterOpsINS_17_ClassicAlgPolicyEE25__validate_iter_referenceB7v160006IRNS_16reverse_iteratorIPP8VariableEEEEvv, symObjAddr: 0xDD90, symBinAddr: 0x100020230, symSize: 0x10 }
  - { offsetInCU: 0x2322D, offset: 0x3F8C3, size: 0x8, addend: 0x0, symName: __ZNSt3__118__unwrap_iter_implINS_16reverse_iteratorIPP8VariableEELb0EE8__unwrapB7v160006ES5_, symObjAddr: 0xDDA0, symBinAddr: 0x100020240, symSize: 0x20 }
  - { offsetInCU: 0x23255, offset: 0x3F8EB, size: 0x8, addend: 0x0, symName: __ZNSt3__14pairINS_16reverse_iteratorIPP8VariableEES5_EC1B7v160006IS5_S5_LPv0EEEOT_OT0_, symObjAddr: 0xDDC0, symBinAddr: 0x100020260, symSize: 0x30 }
  - { offsetInCU: 0x232B3, offset: 0x3F949, size: 0x8, addend: 0x0, symName: __ZNSt3__14pairINS_16reverse_iteratorIPP8VariableEES5_EC2B7v160006IS5_S5_LPv0EEEOT_OT0_, symObjAddr: 0xDDF0, symBinAddr: 0x100020290, symSize: 0x40 }
  - { offsetInCU: 0x23311, offset: 0x3F9A7, size: 0x8, addend: 0x0, symName: __ZNSt3__118__unwrap_iter_implINS_16reverse_iteratorIPP8VariableEELb0EE8__rewrapB7v160006ES5_S5_, symObjAddr: 0xDE30, symBinAddr: 0x1000202D0, symSize: 0x30 }
  - { offsetInCU: 0x2333F, offset: 0x3F9D5, size: 0x8, addend: 0x0, symName: __ZNSt3__116reverse_iteratorIPP8VariableEC2B7v160006ES3_, symObjAddr: 0xDE60, symBinAddr: 0x100020300, symSize: 0x30 }
  - { offsetInCU: 0x23377, offset: 0x3FA0D, size: 0x8, addend: 0x0, symName: __ZNSt3__114__split_bufferIP8VariableRNS_9allocatorIS2_EEED2Ev, symObjAddr: 0xDE90, symBinAddr: 0x100020330, symSize: 0x70 }
  - { offsetInCU: 0x233A3, offset: 0x3FA39, size: 0x8, addend: 0x0, symName: __ZNSt3__114__split_bufferIP8VariableRNS_9allocatorIS2_EEE5clearB7v160006Ev, symObjAddr: 0xDF00, symBinAddr: 0x1000203A0, symSize: 0x20 }
  - { offsetInCU: 0x233C9, offset: 0x3FA5F, size: 0x8, addend: 0x0, symName: __ZNKSt3__114__split_bufferIP8VariableRNS_9allocatorIS2_EEE8capacityB7v160006Ev, symObjAddr: 0xDF20, symBinAddr: 0x1000203C0, symSize: 0x30 }
  - { offsetInCU: 0x233EF, offset: 0x3FA85, size: 0x8, addend: 0x0, symName: __ZNSt3__114__split_bufferIP8VariableRNS_9allocatorIS2_EEE17__destruct_at_endB7v160006EPS2_, symObjAddr: 0xDF50, symBinAddr: 0x1000203F0, symSize: 0x30 }
  - { offsetInCU: 0x23423, offset: 0x3FAB9, size: 0x8, addend: 0x0, symName: __ZNSt3__114__split_bufferIP8VariableRNS_9allocatorIS2_EEE17__destruct_at_endB7v160006EPS2_NS_17integral_constantIbLb0EEE, symObjAddr: 0xDF80, symBinAddr: 0x100020420, symSize: 0x80 }
  - { offsetInCU: 0x23464, offset: 0x3FAFA, size: 0x8, addend: 0x0, symName: __ZNKSt3__114__split_bufferIP8VariableRNS_9allocatorIS2_EEE9__end_capB7v160006Ev, symObjAddr: 0xE000, symBinAddr: 0x1000204A0, symSize: 0x20 }
  - { offsetInCU: 0x2348A, offset: 0x3FB20, size: 0x8, addend: 0x0, symName: __ZNKSt3__117__compressed_pairIPP8VariableRNS_9allocatorIS2_EEE5firstB7v160006Ev, symObjAddr: 0xE020, symBinAddr: 0x1000204C0, symSize: 0x20 }
  - { offsetInCU: 0x234B0, offset: 0x3FB46, size: 0x8, addend: 0x0, symName: __ZNK5Scope10findRecordERKNSt3__112basic_stringIcNS0_11char_traitsIcEENS0_9allocatorIcEEEE, symObjAddr: 0xE040, symBinAddr: 0x1000204E0, symSize: 0x140 }
  - { offsetInCU: 0x234E4, offset: 0x3FB7A, size: 0x8, addend: 0x0, symName: __ZN11SymbolTable19reportSemanticErrorERKNSt3__112basic_stringIcNS0_11char_traitsIcEENS0_9allocatorIcEEEE, symObjAddr: 0xE180, symBinAddr: 0x100020620, symSize: 0x90 }
  - { offsetInCU: 0x23519, offset: 0x3FBAF, size: 0x8, addend: 0x0, symName: __ZNKSt3__13mapINS_12basic_stringIcNS_11char_traitsIcEENS_9allocatorIcEEEEP5ClassNS_4lessIS6_EENS4_INS_4pairIKS6_S8_EEEEE4findB7v160006ERSC_, symObjAddr: 0xE240, symBinAddr: 0x1000206E0, symSize: 0x40 }
  - { offsetInCU: 0x2354E, offset: 0x3FBE4, size: 0x8, addend: 0x0, symName: __ZNKSt3__13mapINS_12basic_stringIcNS_11char_traitsIcEENS_9allocatorIcEEEEP5ClassNS_4lessIS6_EENS4_INS_4pairIKS6_S8_EEEEE3endB7v160006Ev, symObjAddr: 0xE280, symBinAddr: 0x100020720, symSize: 0x30 }
  - { offsetInCU: 0x23574, offset: 0x3FC0A, size: 0x8, addend: 0x0, symName: __ZNKSt3__13mapINS_12basic_stringIcNS_11char_traitsIcEENS_9allocatorIcEEEEP5ClassNS_4lessIS6_EENS4_INS_4pairIKS6_S8_EEEEE2atERSC_, symObjAddr: 0xE2B0, symBinAddr: 0x100020750, symSize: 0x60 }
  - { offsetInCU: 0x235C9, offset: 0x3FC5F, size: 0x8, addend: 0x0, symName: __ZNKSt3__13mapINS_12basic_stringIcNS_11char_traitsIcEENS_9allocatorIcEEEEP6MethodNS_4lessIS6_EENS4_INS_4pairIKS6_S8_EEEEE4findB7v160006ERSC_, symObjAddr: 0xE340, symBinAddr: 0x1000207E0, symSize: 0x40 }
  - { offsetInCU: 0x235FE, offset: 0x3FC94, size: 0x8, addend: 0x0, symName: __ZNKSt3__13mapINS_12basic_stringIcNS_11char_traitsIcEENS_9allocatorIcEEEEP6MethodNS_4lessIS6_EENS4_INS_4pairIKS6_S8_EEEEE3endB7v160006Ev, symObjAddr: 0xE380, symBinAddr: 0x100020820, symSize: 0x30 }
  - { offsetInCU: 0x23624, offset: 0x3FCBA, size: 0x8, addend: 0x0, symName: __ZNKSt3__13mapINS_12basic_stringIcNS_11char_traitsIcEENS_9allocatorIcEEEEP6MethodNS_4lessIS6_EENS4_INS_4pairIKS6_S8_EEEEE2atERSC_, symObjAddr: 0xE3B0, symBinAddr: 0x100020850, symSize: 0x60 }
  - { offsetInCU: 0x23679, offset: 0x3FD0F, size: 0x8, addend: 0x0, symName: __ZNKSt3__13mapINS_12basic_stringIcNS_11char_traitsIcEENS_9allocatorIcEEEEP8VariableNS_4lessIS6_EENS4_INS_4pairIKS6_S8_EEEEE4findB7v160006ERSC_, symObjAddr: 0xE440, symBinAddr: 0x1000208E0, symSize: 0x40 }
  - { offsetInCU: 0x236AE, offset: 0x3FD44, size: 0x8, addend: 0x0, symName: __ZNKSt3__13mapINS_12basic_stringIcNS_11char_traitsIcEENS_9allocatorIcEEEEP8VariableNS_4lessIS6_EENS4_INS_4pairIKS6_S8_EEEEE3endB7v160006Ev, symObjAddr: 0xE480, symBinAddr: 0x100020920, symSize: 0x30 }
  - { offsetInCU: 0x236D4, offset: 0x3FD6A, size: 0x8, addend: 0x0, symName: __ZNKSt3__13mapINS_12basic_stringIcNS_11char_traitsIcEENS_9allocatorIcEEEEP8VariableNS_4lessIS6_EENS4_INS_4pairIKS6_S8_EEEEE2atERSC_, symObjAddr: 0xE4B0, symBinAddr: 0x100020950, symSize: 0x60 }
  - { offsetInCU: 0x23729, offset: 0x3FDBF, size: 0x8, addend: 0x0, symName: __ZNKSt3__16__treeINS_12__value_typeINS_12basic_stringIcNS_11char_traitsIcEENS_9allocatorIcEEEEP5ClassEENS_19__map_value_compareIS7_SA_NS_4lessIS7_EELb1EEENS5_ISA_EEE4findIS7_EENS_21__tree_const_iteratorISA_PNS_11__tree_nodeISA_PvEElEERKT_, symObjAddr: 0xE570, symBinAddr: 0x100020A10, symSize: 0xE0 }
  - { offsetInCU: 0x23778, offset: 0x3FE0E, size: 0x8, addend: 0x0, symName: __ZNSt3__120__map_const_iteratorINS_21__tree_const_iteratorINS_12__value_typeINS_12basic_stringIcNS_11char_traitsIcEENS_9allocatorIcEEEEP5ClassEEPNS_11__tree_nodeISB_PvEElEEEC1B7v160006ESG_, symObjAddr: 0xE650, symBinAddr: 0x100020AF0, symSize: 0x30 }
  - { offsetInCU: 0x237B1, offset: 0x3FE47, size: 0x8, addend: 0x0, symName: __ZNKSt3__16__treeINS_12__value_typeINS_12basic_stringIcNS_11char_traitsIcEENS_9allocatorIcEEEEP5ClassEENS_19__map_value_compareIS7_SA_NS_4lessIS7_EELb1EEENS5_ISA_EEE13__lower_boundIS7_EENS_21__tree_const_iteratorISA_PNS_11__tree_nodeISA_PvEElEERKT_SM_PNS_15__tree_end_nodeIPNS_16__tree_node_baseISK_EEEE, symObjAddr: 0xE680, symBinAddr: 0x100020B20, symSize: 0x90 }
  - { offsetInCU: 0x2380F, offset: 0x3FEA5, size: 0x8, addend: 0x0, symName: __ZNKSt3__16__treeINS_12__value_typeINS_12basic_stringIcNS_11char_traitsIcEENS_9allocatorIcEEEEP5ClassEENS_19__map_value_compareIS7_SA_NS_4lessIS7_EELb1EEENS5_ISA_EEE3endB7v160006Ev, symObjAddr: 0xE710, symBinAddr: 0x100020BB0, symSize: 0x30 }
  - { offsetInCU: 0x23835, offset: 0x3FECB, size: 0x8, addend: 0x0, symName: __ZNKSt3__16__treeINS_12__value_typeINS_12basic_stringIcNS_11char_traitsIcEENS_9allocatorIcEEEEP5ClassEENS_19__map_value_compareIS7_SA_NS_4lessIS7_EELb1EEENS5_ISA_EEE10value_compB7v160006Ev, symObjAddr: 0xE740, symBinAddr: 0x100020BE0, symSize: 0x20 }
  - { offsetInCU: 0x2385B, offset: 0x3FEF1, size: 0x8, addend: 0x0, symName: __ZNKSt3__121__tree_const_iteratorINS_12__value_typeINS_12basic_stringIcNS_11char_traitsIcEENS_9allocatorIcEEEEP5ClassEEPNS_11__tree_nodeISA_PvEElEdeB7v160006Ev, symObjAddr: 0xE760, symBinAddr: 0x100020C00, symSize: 0x20 }
  - { offsetInCU: 0x23881, offset: 0x3FF17, size: 0x8, addend: 0x0, symName: __ZNSt3__121__tree_const_iteratorINS_12__value_typeINS_12basic_stringIcNS_11char_traitsIcEENS_9allocatorIcEEEEP5ClassEEPNS_11__tree_nodeISA_PvEElEC1B7v160006EPNS_15__tree_end_nodeIPNS_16__tree_node_baseISC_EEEE, symObjAddr: 0xE780, symBinAddr: 0x100020C20, symSize: 0x30 }
  - { offsetInCU: 0x238BA, offset: 0x3FF50, size: 0x8, addend: 0x0, symName: __ZNSt3__121__tree_const_iteratorINS_12__value_typeINS_12basic_stringIcNS_11char_traitsIcEENS_9allocatorIcEEEEP5ClassEEPNS_11__tree_nodeISA_PvEElEC2B7v160006EPNS_15__tree_end_nodeIPNS_16__tree_node_baseISC_EEEE, symObjAddr: 0xE7B0, symBinAddr: 0x100020C50, symSize: 0x20 }
  - { offsetInCU: 0x238F3, offset: 0x3FF89, size: 0x8, addend: 0x0, symName: __ZNKSt3__117__compressed_pairImNS_19__map_value_compareINS_12basic_stringIcNS_11char_traitsIcEENS_9allocatorIcEEEENS_12__value_typeIS7_P5ClassEENS_4lessIS7_EELb1EEEE6secondB7v160006Ev, symObjAddr: 0xE7D0, symBinAddr: 0x100020C70, symSize: 0x20 }
  - { offsetInCU: 0x23919, offset: 0x3FFAF, size: 0x8, addend: 0x0, symName: __ZNKSt3__122__compressed_pair_elemINS_19__map_value_compareINS_12basic_stringIcNS_11char_traitsIcEENS_9allocatorIcEEEENS_12__value_typeIS7_P5ClassEENS_4lessIS7_EELb1EEELi1ELb1EE5__getB7v160006Ev, symObjAddr: 0xE7F0, symBinAddr: 0x100020C90, symSize: 0x10 }
  - { offsetInCU: 0x2393F, offset: 0x3FFD5, size: 0x8, addend: 0x0, symName: __ZNKSt3__121__tree_const_iteratorINS_12__value_typeINS_12basic_stringIcNS_11char_traitsIcEENS_9allocatorIcEEEEP5ClassEEPNS_11__tree_nodeISA_PvEElE8__get_npB7v160006Ev, symObjAddr: 0xE800, symBinAddr: 0x100020CA0, symSize: 0x20 }
  - { offsetInCU: 0x23965, offset: 0x3FFFB, size: 0x8, addend: 0x0, symName: __ZNSt3__120__map_const_iteratorINS_21__tree_const_iteratorINS_12__value_typeINS_12basic_stringIcNS_11char_traitsIcEENS_9allocatorIcEEEEP5ClassEEPNS_11__tree_nodeISB_PvEElEEEC2B7v160006ESG_, symObjAddr: 0xE820, symBinAddr: 0x100020CC0, symSize: 0x20 }
  - { offsetInCU: 0x2399E, offset: 0x40034, size: 0x8, addend: 0x0, symName: __ZNKSt3__16__treeINS_12__value_typeINS_12basic_stringIcNS_11char_traitsIcEENS_9allocatorIcEEEEP5ClassEENS_19__map_value_compareIS7_SA_NS_4lessIS7_EELb1EEENS5_ISA_EEE12__find_equalB7v160006IS7_EERPNS_16__tree_node_baseIPvEERPNS_15__tree_end_nodeISL_EERKT_, symObjAddr: 0xE840, symBinAddr: 0x100020CE0, symSize: 0x30 }
  - { offsetInCU: 0x239EB, offset: 0x40081, size: 0x8, addend: 0x0, symName: __ZNSt12out_of_rangeC1B7v160006EPKc, symObjAddr: 0xE8E0, symBinAddr: 0x100020D80, symSize: 0x30 }
  - { offsetInCU: 0x23A23, offset: 0x400B9, size: 0x8, addend: 0x0, symName: __ZNSt12out_of_rangeC2B7v160006EPKc, symObjAddr: 0xE910, symBinAddr: 0x100020DB0, symSize: 0x40 }
  - { offsetInCU: 0x23A5B, offset: 0x400F1, size: 0x8, addend: 0x0, symName: __ZNKSt3__16__treeINS_12__value_typeINS_12basic_stringIcNS_11char_traitsIcEENS_9allocatorIcEEEEP6MethodEENS_19__map_value_compareIS7_SA_NS_4lessIS7_EELb1EEENS5_ISA_EEE4findIS7_EENS_21__tree_const_iteratorISA_PNS_11__tree_nodeISA_PvEElEERKT_, symObjAddr: 0xE9B0, symBinAddr: 0x100020E50, symSize: 0xE0 }
  - { offsetInCU: 0x23AAA, offset: 0x40140, size: 0x8, addend: 0x0, symName: __ZNSt3__120__map_const_iteratorINS_21__tree_const_iteratorINS_12__value_typeINS_12basic_stringIcNS_11char_traitsIcEENS_9allocatorIcEEEEP6MethodEEPNS_11__tree_nodeISB_PvEElEEEC1B7v160006ESG_, symObjAddr: 0xEA90, symBinAddr: 0x100020F30, symSize: 0x30 }
  - { offsetInCU: 0x23AE3, offset: 0x40179, size: 0x8, addend: 0x0, symName: __ZNKSt3__16__treeINS_12__value_typeINS_12basic_stringIcNS_11char_traitsIcEENS_9allocatorIcEEEEP6MethodEENS_19__map_value_compareIS7_SA_NS_4lessIS7_EELb1EEENS5_ISA_EEE13__lower_boundIS7_EENS_21__tree_const_iteratorISA_PNS_11__tree_nodeISA_PvEElEERKT_SM_PNS_15__tree_end_nodeIPNS_16__tree_node_baseISK_EEEE, symObjAddr: 0xEAC0, symBinAddr: 0x100020F60, symSize: 0x90 }
  - { offsetInCU: 0x23B41, offset: 0x401D7, size: 0x8, addend: 0x0, symName: __ZNKSt3__16__treeINS_12__value_typeINS_12basic_stringIcNS_11char_traitsIcEENS_9allocatorIcEEEEP6MethodEENS_19__map_value_compareIS7_SA_NS_4lessIS7_EELb1EEENS5_ISA_EEE3endB7v160006Ev, symObjAddr: 0xEB50, symBinAddr: 0x100020FF0, symSize: 0x30 }
  - { offsetInCU: 0x23B67, offset: 0x401FD, size: 0x8, addend: 0x0, symName: __ZNKSt3__16__treeINS_12__value_typeINS_12basic_stringIcNS_11char_traitsIcEENS_9allocatorIcEEEEP6MethodEENS_19__map_value_compareIS7_SA_NS_4lessIS7_EELb1EEENS5_ISA_EEE10value_compB7v160006Ev, symObjAddr: 0xEB80, symBinAddr: 0x100021020, symSize: 0x20 }
  - { offsetInCU: 0x23B8D, offset: 0x40223, size: 0x8, addend: 0x0, symName: __ZNKSt3__121__tree_const_iteratorINS_12__value_typeINS_12basic_stringIcNS_11char_traitsIcEENS_9allocatorIcEEEEP6MethodEEPNS_11__tree_nodeISA_PvEElEdeB7v160006Ev, symObjAddr: 0xEBA0, symBinAddr: 0x100021040, symSize: 0x20 }
  - { offsetInCU: 0x23BB3, offset: 0x40249, size: 0x8, addend: 0x0, symName: __ZNSt3__121__tree_const_iteratorINS_12__value_typeINS_12basic_stringIcNS_11char_traitsIcEENS_9allocatorIcEEEEP6MethodEEPNS_11__tree_nodeISA_PvEElEC1B7v160006EPNS_15__tree_end_nodeIPNS_16__tree_node_baseISC_EEEE, symObjAddr: 0xEBC0, symBinAddr: 0x100021060, symSize: 0x30 }
  - { offsetInCU: 0x23BEC, offset: 0x40282, size: 0x8, addend: 0x0, symName: __ZNSt3__121__tree_const_iteratorINS_12__value_typeINS_12basic_stringIcNS_11char_traitsIcEENS_9allocatorIcEEEEP6MethodEEPNS_11__tree_nodeISA_PvEElEC2B7v160006EPNS_15__tree_end_nodeIPNS_16__tree_node_baseISC_EEEE, symObjAddr: 0xEBF0, symBinAddr: 0x100021090, symSize: 0x20 }
  - { offsetInCU: 0x23C25, offset: 0x402BB, size: 0x8, addend: 0x0, symName: __ZNKSt3__117__compressed_pairImNS_19__map_value_compareINS_12basic_stringIcNS_11char_traitsIcEENS_9allocatorIcEEEENS_12__value_typeIS7_P6MethodEENS_4lessIS7_EELb1EEEE6secondB7v160006Ev, symObjAddr: 0xEC10, symBinAddr: 0x1000210B0, symSize: 0x20 }
  - { offsetInCU: 0x23C4B, offset: 0x402E1, size: 0x8, addend: 0x0, symName: __ZNKSt3__122__compressed_pair_elemINS_19__map_value_compareINS_12basic_stringIcNS_11char_traitsIcEENS_9allocatorIcEEEENS_12__value_typeIS7_P6MethodEENS_4lessIS7_EELb1EEELi1ELb1EE5__getB7v160006Ev, symObjAddr: 0xEC30, symBinAddr: 0x1000210D0, symSize: 0x10 }
  - { offsetInCU: 0x23C71, offset: 0x40307, size: 0x8, addend: 0x0, symName: __ZNKSt3__121__tree_const_iteratorINS_12__value_typeINS_12basic_stringIcNS_11char_traitsIcEENS_9allocatorIcEEEEP6MethodEEPNS_11__tree_nodeISA_PvEElE8__get_npB7v160006Ev, symObjAddr: 0xEC40, symBinAddr: 0x1000210E0, symSize: 0x20 }
  - { offsetInCU: 0x23C97, offset: 0x4032D, size: 0x8, addend: 0x0, symName: __ZNSt3__120__map_const_iteratorINS_21__tree_const_iteratorINS_12__value_typeINS_12basic_stringIcNS_11char_traitsIcEENS_9allocatorIcEEEEP6MethodEEPNS_11__tree_nodeISB_PvEElEEEC2B7v160006ESG_, symObjAddr: 0xEC60, symBinAddr: 0x100021100, symSize: 0x20 }
  - { offsetInCU: 0x23CD0, offset: 0x40366, size: 0x8, addend: 0x0, symName: __ZNKSt3__16__treeINS_12__value_typeINS_12basic_stringIcNS_11char_traitsIcEENS_9allocatorIcEEEEP6MethodEENS_19__map_value_compareIS7_SA_NS_4lessIS7_EELb1EEENS5_ISA_EEE12__find_equalB7v160006IS7_EERPNS_16__tree_node_baseIPvEERPNS_15__tree_end_nodeISL_EERKT_, symObjAddr: 0xEC80, symBinAddr: 0x100021120, symSize: 0x30 }
  - { offsetInCU: 0x23D1D, offset: 0x403B3, size: 0x8, addend: 0x0, symName: __ZNKSt3__16__treeINS_12__value_typeINS_12basic_stringIcNS_11char_traitsIcEENS_9allocatorIcEEEEP8VariableEENS_19__map_value_compareIS7_SA_NS_4lessIS7_EELb1EEENS5_ISA_EEE4findIS7_EENS_21__tree_const_iteratorISA_PNS_11__tree_nodeISA_PvEElEERKT_, symObjAddr: 0xED10, symBinAddr: 0x1000211B0, symSize: 0xE0 }
  - { offsetInCU: 0x23D6C, offset: 0x40402, size: 0x8, addend: 0x0, symName: __ZNSt3__120__map_const_iteratorINS_21__tree_const_iteratorINS_12__value_typeINS_12basic_stringIcNS_11char_traitsIcEENS_9allocatorIcEEEEP8VariableEEPNS_11__tree_nodeISB_PvEElEEEC1B7v160006ESG_, symObjAddr: 0xEDF0, symBinAddr: 0x100021290, symSize: 0x30 }
  - { offsetInCU: 0x23DA5, offset: 0x4043B, size: 0x8, addend: 0x0, symName: __ZNKSt3__16__treeINS_12__value_typeINS_12basic_stringIcNS_11char_traitsIcEENS_9allocatorIcEEEEP8VariableEENS_19__map_value_compareIS7_SA_NS_4lessIS7_EELb1EEENS5_ISA_EEE13__lower_boundIS7_EENS_21__tree_const_iteratorISA_PNS_11__tree_nodeISA_PvEElEERKT_SM_PNS_15__tree_end_nodeIPNS_16__tree_node_baseISK_EEEE, symObjAddr: 0xEE20, symBinAddr: 0x1000212C0, symSize: 0x90 }
  - { offsetInCU: 0x23E03, offset: 0x40499, size: 0x8, addend: 0x0, symName: __ZNKSt3__16__treeINS_12__value_typeINS_12basic_stringIcNS_11char_traitsIcEENS_9allocatorIcEEEEP8VariableEENS_19__map_value_compareIS7_SA_NS_4lessIS7_EELb1EEENS5_ISA_EEE3endB7v160006Ev, symObjAddr: 0xEEB0, symBinAddr: 0x100021350, symSize: 0x30 }
  - { offsetInCU: 0x23E29, offset: 0x404BF, size: 0x8, addend: 0x0, symName: __ZNKSt3__16__treeINS_12__value_typeINS_12basic_stringIcNS_11char_traitsIcEENS_9allocatorIcEEEEP8VariableEENS_19__map_value_compareIS7_SA_NS_4lessIS7_EELb1EEENS5_ISA_EEE10value_compB7v160006Ev, symObjAddr: 0xEEE0, symBinAddr: 0x100021380, symSize: 0x20 }
  - { offsetInCU: 0x23E4F, offset: 0x404E5, size: 0x8, addend: 0x0, symName: __ZNKSt3__121__tree_const_iteratorINS_12__value_typeINS_12basic_stringIcNS_11char_traitsIcEENS_9allocatorIcEEEEP8VariableEEPNS_11__tree_nodeISA_PvEElEdeB7v160006Ev, symObjAddr: 0xEF00, symBinAddr: 0x1000213A0, symSize: 0x20 }
  - { offsetInCU: 0x23E75, offset: 0x4050B, size: 0x8, addend: 0x0, symName: __ZNSt3__121__tree_const_iteratorINS_12__value_typeINS_12basic_stringIcNS_11char_traitsIcEENS_9allocatorIcEEEEP8VariableEEPNS_11__tree_nodeISA_PvEElEC1B7v160006EPNS_15__tree_end_nodeIPNS_16__tree_node_baseISC_EEEE, symObjAddr: 0xEF20, symBinAddr: 0x1000213C0, symSize: 0x30 }
  - { offsetInCU: 0x23EAE, offset: 0x40544, size: 0x8, addend: 0x0, symName: __ZNSt3__121__tree_const_iteratorINS_12__value_typeINS_12basic_stringIcNS_11char_traitsIcEENS_9allocatorIcEEEEP8VariableEEPNS_11__tree_nodeISA_PvEElEC2B7v160006EPNS_15__tree_end_nodeIPNS_16__tree_node_baseISC_EEEE, symObjAddr: 0xEF50, symBinAddr: 0x1000213F0, symSize: 0x20 }
  - { offsetInCU: 0x23EE7, offset: 0x4057D, size: 0x8, addend: 0x0, symName: __ZNKSt3__117__compressed_pairImNS_19__map_value_compareINS_12basic_stringIcNS_11char_traitsIcEENS_9allocatorIcEEEENS_12__value_typeIS7_P8VariableEENS_4lessIS7_EELb1EEEE6secondB7v160006Ev, symObjAddr: 0xEF70, symBinAddr: 0x100021410, symSize: 0x20 }
  - { offsetInCU: 0x23F0D, offset: 0x405A3, size: 0x8, addend: 0x0, symName: __ZNKSt3__122__compressed_pair_elemINS_19__map_value_compareINS_12basic_stringIcNS_11char_traitsIcEENS_9allocatorIcEEEENS_12__value_typeIS7_P8VariableEENS_4lessIS7_EELb1EEELi1ELb1EE5__getB7v160006Ev, symObjAddr: 0xEF90, symBinAddr: 0x100021430, symSize: 0x10 }
  - { offsetInCU: 0x23F33, offset: 0x405C9, size: 0x8, addend: 0x0, symName: __ZNKSt3__121__tree_const_iteratorINS_12__value_typeINS_12basic_stringIcNS_11char_traitsIcEENS_9allocatorIcEEEEP8VariableEEPNS_11__tree_nodeISA_PvEElE8__get_npB7v160006Ev, symObjAddr: 0xEFA0, symBinAddr: 0x100021440, symSize: 0x20 }
  - { offsetInCU: 0x23F59, offset: 0x405EF, size: 0x8, addend: 0x0, symName: __ZNSt3__120__map_const_iteratorINS_21__tree_const_iteratorINS_12__value_typeINS_12basic_stringIcNS_11char_traitsIcEENS_9allocatorIcEEEEP8VariableEEPNS_11__tree_nodeISB_PvEElEEEC2B7v160006ESG_, symObjAddr: 0xEFC0, symBinAddr: 0x100021460, symSize: 0x20 }
  - { offsetInCU: 0x23F92, offset: 0x40628, size: 0x8, addend: 0x0, symName: __ZNKSt3__16__treeINS_12__value_typeINS_12basic_stringIcNS_11char_traitsIcEENS_9allocatorIcEEEEP8VariableEENS_19__map_value_compareIS7_SA_NS_4lessIS7_EELb1EEENS5_ISA_EEE12__find_equalB7v160006IS7_EERPNS_16__tree_node_baseIPvEERPNS_15__tree_end_nodeISL_EERKT_, symObjAddr: 0xEFE0, symBinAddr: 0x100021480, symSize: 0x30 }
  - { offsetInCU: 0x23FDF, offset: 0x40675, size: 0x8, addend: 0x0, symName: __ZNSt3__14listIP4NodeNS_9allocatorIS2_EEED2Ev, symObjAddr: 0xF010, symBinAddr: 0x1000214B0, symSize: 0x20 }
  - { offsetInCU: 0x2400C, offset: 0x406A2, size: 0x8, addend: 0x0, symName: __ZN11SymbolTable21generate_tree_contentEPNSt3__114basic_ofstreamIcNS0_11char_traitsIcEEEEP5Scope, symObjAddr: 0xF030, symBinAddr: 0x1000214D0, symSize: 0xAC0 }
  - { offsetInCU: 0x2419B, offset: 0x40831, size: 0x8, addend: 0x0, symName: __ZNSt3__13mapINS_12basic_stringIcNS_11char_traitsIcEENS_9allocatorIcEEEEP5ClassNS_4lessIS6_EENS4_INS_4pairIKS6_S8_EEEEE5beginB7v160006Ev, symObjAddr: 0xFC90, symBinAddr: 0x100022130, symSize: 0x30 }
  - { offsetInCU: 0x241C1, offset: 0x40857, size: 0x8, addend: 0x0, symName: __ZNSt3__13mapINS_12basic_stringIcNS_11char_traitsIcEENS_9allocatorIcEEEEP5ClassNS_4lessIS6_EENS4_INS_4pairIKS6_S8_EEEEE3endB7v160006Ev, symObjAddr: 0xFCC0, symBinAddr: 0x100022160, symSize: 0x30 }
  - { offsetInCU: 0x241E7, offset: 0x4087D, size: 0x8, addend: 0x0, symName: __ZNKSt3__114__map_iteratorINS_15__tree_iteratorINS_12__value_typeINS_12basic_stringIcNS_11char_traitsIcEENS_9allocatorIcEEEEP5ClassEEPNS_11__tree_nodeISB_PvEElEEEdeB7v160006Ev, symObjAddr: 0xFD20, symBinAddr: 0x1000221C0, symSize: 0x30 }
  - { offsetInCU: 0x2420D, offset: 0x408A3, size: 0x8, addend: 0x0, symName: __ZNSt3__14pairIKNS_12basic_stringIcNS_11char_traitsIcEENS_9allocatorIcEEEEP5ClassEC1ERKSA_, symObjAddr: 0xFD50, symBinAddr: 0x1000221F0, symSize: 0x30 }
  - { offsetInCU: 0x24242, offset: 0x408D8, size: 0x8, addend: 0x0, symName: __ZNSt3__114__map_iteratorINS_15__tree_iteratorINS_12__value_typeINS_12basic_stringIcNS_11char_traitsIcEENS_9allocatorIcEEEEP5ClassEEPNS_11__tree_nodeISB_PvEElEEEppB7v160006Ev, symObjAddr: 0xFDB0, symBinAddr: 0x100022220, symSize: 0x30 }
  - { offsetInCU: 0x24268, offset: 0x408FE, size: 0x8, addend: 0x0, symName: __ZNSt3__13mapINS_12basic_stringIcNS_11char_traitsIcEENS_9allocatorIcEEEEP6MethodNS_4lessIS6_EENS4_INS_4pairIKS6_S8_EEEEE5beginB7v160006Ev, symObjAddr: 0xFDE0, symBinAddr: 0x100022250, symSize: 0x30 }
  - { offsetInCU: 0x2428E, offset: 0x40924, size: 0x8, addend: 0x0, symName: __ZNSt3__13mapINS_12basic_stringIcNS_11char_traitsIcEENS_9allocatorIcEEEEP6MethodNS_4lessIS6_EENS4_INS_4pairIKS6_S8_EEEEE3endB7v160006Ev, symObjAddr: 0xFE10, symBinAddr: 0x100022280, symSize: 0x30 }
  - { offsetInCU: 0x242B4, offset: 0x4094A, size: 0x8, addend: 0x0, symName: __ZNKSt3__114__map_iteratorINS_15__tree_iteratorINS_12__value_typeINS_12basic_stringIcNS_11char_traitsIcEENS_9allocatorIcEEEEP6MethodEEPNS_11__tree_nodeISB_PvEElEEEdeB7v160006Ev, symObjAddr: 0xFE70, symBinAddr: 0x1000222E0, symSize: 0x30 }
  - { offsetInCU: 0x242DA, offset: 0x40970, size: 0x8, addend: 0x0, symName: __ZNSt3__14pairIKNS_12basic_stringIcNS_11char_traitsIcEENS_9allocatorIcEEEEP6MethodEC1ERKSA_, symObjAddr: 0xFEA0, symBinAddr: 0x100022310, symSize: 0x30 }
  - { offsetInCU: 0x2430F, offset: 0x409A5, size: 0x8, addend: 0x0, symName: __ZNSt3__114__map_iteratorINS_15__tree_iteratorINS_12__value_typeINS_12basic_stringIcNS_11char_traitsIcEENS_9allocatorIcEEEEP6MethodEEPNS_11__tree_nodeISB_PvEElEEEppB7v160006Ev, symObjAddr: 0xFED0, symBinAddr: 0x100022340, symSize: 0x30 }
  - { offsetInCU: 0x24335, offset: 0x409CB, size: 0x8, addend: 0x0, symName: __ZNSt3__13mapINS_12basic_stringIcNS_11char_traitsIcEENS_9allocatorIcEEEEP8VariableNS_4lessIS6_EENS4_INS_4pairIKS6_S8_EEEEE5beginB7v160006Ev, symObjAddr: 0xFF00, symBinAddr: 0x100022370, symSize: 0x30 }
  - { offsetInCU: 0x2435B, offset: 0x409F1, size: 0x8, addend: 0x0, symName: __ZNSt3__13mapINS_12basic_stringIcNS_11char_traitsIcEENS_9allocatorIcEEEEP8VariableNS_4lessIS6_EENS4_INS_4pairIKS6_S8_EEEEE3endB7v160006Ev, symObjAddr: 0xFF30, symBinAddr: 0x1000223A0, symSize: 0x30 }
  - { offsetInCU: 0x24381, offset: 0x40A17, size: 0x8, addend: 0x0, symName: __ZNKSt3__114__map_iteratorINS_15__tree_iteratorINS_12__value_typeINS_12basic_stringIcNS_11char_traitsIcEENS_9allocatorIcEEEEP8VariableEEPNS_11__tree_nodeISB_PvEElEEEdeB7v160006Ev, symObjAddr: 0xFF90, symBinAddr: 0x100022400, symSize: 0x30 }
  - { offsetInCU: 0x243A7, offset: 0x40A3D, size: 0x8, addend: 0x0, symName: __ZNSt3__14pairIKNS_12basic_stringIcNS_11char_traitsIcEENS_9allocatorIcEEEEP8VariableEC1ERKSA_, symObjAddr: 0xFFC0, symBinAddr: 0x100022430, symSize: 0x30 }
  - { offsetInCU: 0x243DC, offset: 0x40A72, size: 0x8, addend: 0x0, symName: __ZNSt3__114__map_iteratorINS_15__tree_iteratorINS_12__value_typeINS_12basic_stringIcNS_11char_traitsIcEENS_9allocatorIcEEEEP8VariableEEPNS_11__tree_nodeISB_PvEElEEEppB7v160006Ev, symObjAddr: 0xFFF0, symBinAddr: 0x100022460, symSize: 0x30 }
  - { offsetInCU: 0x24402, offset: 0x40A98, size: 0x8, addend: 0x0, symName: __ZNSt3__16vectorIP5ScopeNS_9allocatorIS2_EEE5beginB7v160006Ev, symObjAddr: 0x10020, symBinAddr: 0x100022490, symSize: 0x30 }
  - { offsetInCU: 0x2442A, offset: 0x40AC0, size: 0x8, addend: 0x0, symName: __ZNSt3__16vectorIP5ScopeNS_9allocatorIS2_EEE3endB7v160006Ev, symObjAddr: 0x10050, symBinAddr: 0x1000224C0, symSize: 0x30 }
  - { offsetInCU: 0x24452, offset: 0x40AE8, size: 0x8, addend: 0x0, symName: __ZNKSt3__111__wrap_iterIPP5ScopeEdeB7v160006Ev, symObjAddr: 0x100B0, symBinAddr: 0x100022520, symSize: 0x20 }
  - { offsetInCU: 0x24478, offset: 0x40B0E, size: 0x8, addend: 0x0, symName: __ZNSt3__111__wrap_iterIPP5ScopeEppB7v160006Ev, symObjAddr: 0x100D0, symBinAddr: 0x100022540, symSize: 0x20 }
  - { offsetInCU: 0x244A8, offset: 0x40B3E, size: 0x8, addend: 0x0, symName: __ZNSt3__116allocator_traitsINS_9allocatorIcEEE37select_on_container_copy_constructionB7v160006IS2_vvEES2_RKS2_, symObjAddr: 0x10280, symBinAddr: 0x100022560, symSize: 0x10 }
  - { offsetInCU: 0x244D7, offset: 0x40B6D, size: 0x8, addend: 0x0, symName: __ZNKSt3__112basic_stringIcNS_11char_traitsIcEENS_9allocatorIcEEE13get_allocatorB7v160006Ev, symObjAddr: 0x10290, symBinAddr: 0x100022570, symSize: 0x20 }
  - { offsetInCU: 0x244FD, offset: 0x40B93, size: 0x8, addend: 0x0, symName: __ZNSt3__112basic_stringIcNS_11char_traitsIcEENS_9allocatorIcEEEC1B7v160006ENS_24__uninitialized_size_tagEmRKS4_, symObjAddr: 0x102B0, symBinAddr: 0x100022590, symSize: 0x30 }
  - { offsetInCU: 0x24551, offset: 0x40BE7, size: 0x8, addend: 0x0, symName: __ZNSt3__112basic_stringIcNS_11char_traitsIcEENS_9allocatorIcEEE13__get_pointerB7v160006Ev, symObjAddr: 0x102F0, symBinAddr: 0x1000225D0, symSize: 0x50 }
  - { offsetInCU: 0x24577, offset: 0x40C0D, size: 0x8, addend: 0x0, symName: __ZNSt3__111char_traitsIcE4copyEPcPKcm, symObjAddr: 0x10340, symBinAddr: 0x100022620, symSize: 0x70 }
  - { offsetInCU: 0x245B6, offset: 0x40C4C, size: 0x8, addend: 0x0, symName: __ZNSt3__111char_traitsIcE6assignEPcmc, symObjAddr: 0x103B0, symBinAddr: 0x100022690, symSize: 0x40 }
  - { offsetInCU: 0x245F5, offset: 0x40C8B, size: 0x8, addend: 0x0, symName: __ZNKSt3__112basic_stringIcNS_11char_traitsIcEENS_9allocatorIcEEE7__allocB7v160006Ev, symObjAddr: 0x103F0, symBinAddr: 0x1000226D0, symSize: 0x20 }
  - { offsetInCU: 0x2461B, offset: 0x40CB1, size: 0x8, addend: 0x0, symName: __ZNKSt3__117__compressed_pairINS_12basic_stringIcNS_11char_traitsIcEENS_9allocatorIcEEE5__repES5_E6secondB7v160006Ev, symObjAddr: 0x10410, symBinAddr: 0x1000226F0, symSize: 0x20 }
  - { offsetInCU: 0x24641, offset: 0x40CD7, size: 0x8, addend: 0x0, symName: __ZNKSt3__122__compressed_pair_elemINS_9allocatorIcEELi1ELb1EE5__getB7v160006Ev, symObjAddr: 0x10430, symBinAddr: 0x100022710, symSize: 0x10 }
  - { offsetInCU: 0x24667, offset: 0x40CFD, size: 0x8, addend: 0x0, symName: __ZNSt3__112basic_stringIcNS_11char_traitsIcEENS_9allocatorIcEEEC2B7v160006ENS_24__uninitialized_size_tagEmRKS4_, symObjAddr: 0x10440, symBinAddr: 0x100022720, symSize: 0x120 }
  - { offsetInCU: 0x246EA, offset: 0x40D80, size: 0x8, addend: 0x0, symName: __ZNSt3__117__compressed_pairINS_12basic_stringIcNS_11char_traitsIcEENS_9allocatorIcEEE5__repES5_EC1B7v160006INS_18__default_init_tagERKS5_EEOT_OT0_, symObjAddr: 0x10560, symBinAddr: 0x100022840, symSize: 0x30 }
  - { offsetInCU: 0x24742, offset: 0x40DD8, size: 0x8, addend: 0x0, symName: __ZNKSt3__112basic_stringIcNS_11char_traitsIcEENS_9allocatorIcEEE8max_sizeB7v160006Ev, symObjAddr: 0x10590, symBinAddr: 0x100022870, symSize: 0xA0 }
  - { offsetInCU: 0x24795, offset: 0x40E2B, size: 0x8, addend: 0x0, symName: __ZNKSt3__112basic_stringIcNS_11char_traitsIcEENS_9allocatorIcEEE20__throw_length_errorB7v160006Ev, symObjAddr: 0x10630, symBinAddr: 0x100022910, symSize: 0x20 }
  - { offsetInCU: 0x247BB, offset: 0x40E51, size: 0x8, addend: 0x0, symName: __ZNSt3__112basic_stringIcNS_11char_traitsIcEENS_9allocatorIcEEE13__fits_in_ssoB7v160006Em, symObjAddr: 0x10650, symBinAddr: 0x100022930, symSize: 0x20 }
  - { offsetInCU: 0x247DF, offset: 0x40E75, size: 0x8, addend: 0x0, symName: __ZNSt3__112basic_stringIcNS_11char_traitsIcEENS_9allocatorIcEEE16__set_short_sizeB7v160006Em, symObjAddr: 0x10670, symBinAddr: 0x100022950, symSize: 0x50 }
  - { offsetInCU: 0x24814, offset: 0x40EAA, size: 0x8, addend: 0x0, symName: __ZNSt3__112basic_stringIcNS_11char_traitsIcEENS_9allocatorIcEEE11__recommendB7v160006Em, symObjAddr: 0x106C0, symBinAddr: 0x1000229A0, symSize: 0x70 }
  - { offsetInCU: 0x24847, offset: 0x40EDD, size: 0x8, addend: 0x0, symName: __ZNSt3__116allocator_traitsINS_9allocatorIcEEE8allocateB7v160006ERS2_m, symObjAddr: 0x10730, symBinAddr: 0x100022A10, symSize: 0x30 }
  - { offsetInCU: 0x2487A, offset: 0x40F10, size: 0x8, addend: 0x0, symName: __ZNSt3__112basic_stringIcNS_11char_traitsIcEENS_9allocatorIcEEE7__allocB7v160006Ev, symObjAddr: 0x10760, symBinAddr: 0x100022A40, symSize: 0x20 }
  - { offsetInCU: 0x248A0, offset: 0x40F36, size: 0x8, addend: 0x0, symName: __ZNSt3__112basic_stringIcNS_11char_traitsIcEENS_9allocatorIcEEE16__begin_lifetimeB7v160006EPcm, symObjAddr: 0x10780, symBinAddr: 0x100022A60, symSize: 0x10 }
  - { offsetInCU: 0x248D3, offset: 0x40F69, size: 0x8, addend: 0x0, symName: __ZNSt3__112basic_stringIcNS_11char_traitsIcEENS_9allocatorIcEEE14__set_long_capB7v160006Em, symObjAddr: 0x10790, symBinAddr: 0x100022A70, symSize: 0x70 }
  - { offsetInCU: 0x24908, offset: 0x40F9E, size: 0x8, addend: 0x0, symName: __ZNSt3__112basic_stringIcNS_11char_traitsIcEENS_9allocatorIcEEE18__set_long_pointerB7v160006EPc, symObjAddr: 0x10800, symBinAddr: 0x100022AE0, symSize: 0x30 }
  - { offsetInCU: 0x2493D, offset: 0x40FD3, size: 0x8, addend: 0x0, symName: __ZNSt3__112basic_stringIcNS_11char_traitsIcEENS_9allocatorIcEEE15__set_long_sizeB7v160006Em, symObjAddr: 0x10830, symBinAddr: 0x100022B10, symSize: 0x30 }
  - { offsetInCU: 0x24972, offset: 0x41008, size: 0x8, addend: 0x0, symName: __ZNSt3__117__compressed_pairINS_12basic_stringIcNS_11char_traitsIcEENS_9allocatorIcEEE5__repES5_EC2B7v160006INS_18__default_init_tagERKS5_EEOT_OT0_, symObjAddr: 0x10860, symBinAddr: 0x100022B40, symSize: 0x40 }
  - { offsetInCU: 0x249CA, offset: 0x41060, size: 0x8, addend: 0x0, symName: __ZNSt3__122__compressed_pair_elemINS_9allocatorIcEELi1ELb1EEC2B7v160006IRKS2_vEEOT_, symObjAddr: 0x108A0, symBinAddr: 0x100022B80, symSize: 0x10 }
  - { offsetInCU: 0x24A0C, offset: 0x410A2, size: 0x8, addend: 0x0, symName: __ZNSt3__116allocator_traitsINS_9allocatorIcEEE8max_sizeB7v160006IS2_vEEmRKS2_, symObjAddr: 0x108B0, symBinAddr: 0x100022B90, symSize: 0x20 }
  - { offsetInCU: 0x24A3A, offset: 0x410D0, size: 0x8, addend: 0x0, symName: __ZNSt3__114numeric_limitsImE3maxB7v160006Ev, symObjAddr: 0x108D0, symBinAddr: 0x100022BB0, symSize: 0x10 }
  - { offsetInCU: 0x24A4E, offset: 0x410E4, size: 0x8, addend: 0x0, symName: __ZNKSt3__19allocatorIcE8max_sizeB7v160006Ev, symObjAddr: 0x108E0, symBinAddr: 0x100022BC0, symSize: 0x20 }
  - { offsetInCU: 0x24A74, offset: 0x4110A, size: 0x8, addend: 0x0, symName: __ZNSt3__123__libcpp_numeric_limitsImLb1EE3maxB7v160006Ev, symObjAddr: 0x10900, symBinAddr: 0x100022BE0, symSize: 0x10 }
  - { offsetInCU: 0x24A88, offset: 0x4111E, size: 0x8, addend: 0x0, symName: __ZNSt3__112basic_stringIcNS_11char_traitsIcEENS_9allocatorIcEEE10__align_itB7v160006ILm16EEEmm, symObjAddr: 0x10910, symBinAddr: 0x100022BF0, symSize: 0x20 }
  - { offsetInCU: 0x24AB6, offset: 0x4114C, size: 0x8, addend: 0x0, symName: __ZNSt3__19allocatorIcE8allocateB7v160006Em, symObjAddr: 0x10930, symBinAddr: 0x100022C10, symSize: 0x50 }
  - { offsetInCU: 0x24AEA, offset: 0x41180, size: 0x8, addend: 0x0, symName: __ZNSt3__117__compressed_pairINS_12basic_stringIcNS_11char_traitsIcEENS_9allocatorIcEEE5__repES5_E6secondB7v160006Ev, symObjAddr: 0x10980, symBinAddr: 0x100022C60, symSize: 0x20 }
  - { offsetInCU: 0x24B10, offset: 0x411A6, size: 0x8, addend: 0x0, symName: __ZNSt3__122__compressed_pair_elemINS_9allocatorIcEELi1ELb1EE5__getB7v160006Ev, symObjAddr: 0x109A0, symBinAddr: 0x100022C80, symSize: 0x10 }
  - { offsetInCU: 0x24B36, offset: 0x411CC, size: 0x8, addend: 0x0, symName: __ZNSt3__112basic_stringIcNS_11char_traitsIcEENS_9allocatorIcEEE18__get_long_pointerB7v160006Ev, symObjAddr: 0x109B0, symBinAddr: 0x100022C90, symSize: 0x20 }
  - { offsetInCU: 0x24B5C, offset: 0x411F2, size: 0x8, addend: 0x0, symName: __ZNSt3__112basic_stringIcNS_11char_traitsIcEENS_9allocatorIcEEE19__get_short_pointerB7v160006Ev, symObjAddr: 0x109D0, symBinAddr: 0x100022CB0, symSize: 0x30 }
  - { offsetInCU: 0x24B82, offset: 0x41218, size: 0x8, addend: 0x0, symName: __ZNSt3__114pointer_traitsIPcE10pointer_toB7v160006ERc, symObjAddr: 0x10A00, symBinAddr: 0x100022CE0, symSize: 0x10 }
  - { offsetInCU: 0x24BC8, offset: 0x4125E, size: 0x8, addend: 0x0, symName: __ZNKSt3__114__copy_trivialclB7v160006IKccLi0EEENS_4pairIPT_PT0_EES5_S5_S7_, symObjAddr: 0x10C10, symBinAddr: 0x100022EF0, symSize: 0x40 }
  - { offsetInCU: 0x24C4F, offset: 0x412E5, size: 0x8, addend: 0x0, symName: __ZNSt3__14pairIPKcS2_EC1B7v160006IS2_S2_LPv0EEEOT_OT0_, symObjAddr: 0x10D60, symBinAddr: 0x100023040, symSize: 0x30 }
  - { offsetInCU: 0x24CAD, offset: 0x41343, size: 0x8, addend: 0x0, symName: __ZNSt3__14pairIPKcS2_EC2B7v160006IS2_S2_LPv0EEEOT_OT0_, symObjAddr: 0x10D90, symBinAddr: 0x100023070, symSize: 0x30 }
  - { offsetInCU: 0x24D0B, offset: 0x413A1, size: 0x8, addend: 0x0, symName: __ZNSt3__118__unwrap_iter_implIPKcLb1EE8__unwrapB7v160006ES2_, symObjAddr: 0x10DC0, symBinAddr: 0x1000230A0, symSize: 0x20 }
  - { offsetInCU: 0x24D38, offset: 0x413CE, size: 0x8, addend: 0x0, symName: __ZNSt3__14pairIPKcPcEC1B7v160006IRS2_S3_LPv0EEEOT_OT0_, symObjAddr: 0x10E80, symBinAddr: 0x100023160, symSize: 0x30 }
  - { offsetInCU: 0x24D96, offset: 0x4142C, size: 0x8, addend: 0x0, symName: __ZNSt3__14pairIPKcPcEC2B7v160006IRS2_S3_LPv0EEEOT_OT0_, symObjAddr: 0x10EB0, symBinAddr: 0x100023190, symSize: 0x30 }
  - { offsetInCU: 0x24DF4, offset: 0x4148A, size: 0x8, addend: 0x0, symName: __ZNSt3__118__unwrap_iter_implIPcLb1EE8__unwrapB7v160006ES1_, symObjAddr: 0x10EE0, symBinAddr: 0x1000231C0, symSize: 0x20 }
  - { offsetInCU: 0x24E17, offset: 0x414AD, size: 0x8, addend: 0x0, symName: __ZNSt3__14pairIPKcPcEC1B7v160006IS2_S3_LPv0EEEOT_OT0_, symObjAddr: 0x10F00, symBinAddr: 0x1000231E0, symSize: 0x30 }
  - { offsetInCU: 0x24E75, offset: 0x4150B, size: 0x8, addend: 0x0, symName: __ZNSt3__14pairIPKcPcEC2B7v160006IS2_S3_LPv0EEEOT_OT0_, symObjAddr: 0x10F30, symBinAddr: 0x100023210, symSize: 0x30 }
  - { offsetInCU: 0x24ED3, offset: 0x41569, size: 0x8, addend: 0x0, symName: __ZNSt3__118__unwrap_iter_implIPKcLb1EE8__rewrapB7v160006ES2_S2_, symObjAddr: 0x10FA0, symBinAddr: 0x100023280, symSize: 0x40 }
  - { offsetInCU: 0x24F04, offset: 0x4159A, size: 0x8, addend: 0x0, symName: __ZNSt3__118__unwrap_iter_implIPcLb1EE8__rewrapB7v160006ES1_S1_, symObjAddr: 0x10FE0, symBinAddr: 0x1000232C0, symSize: 0x40 }
  - { offsetInCU: 0x24F35, offset: 0x415CB, size: 0x8, addend: 0x0, symName: __ZNSt3__16__treeINS_12__value_typeINS_12basic_stringIcNS_11char_traitsIcEENS_9allocatorIcEEEEP5ClassEENS_19__map_value_compareIS7_SA_NS_4lessIS7_EELb1EEENS5_ISA_EEE5beginB7v160006Ev, symObjAddr: 0x110C0, symBinAddr: 0x1000233A0, symSize: 0x30 }
  - { offsetInCU: 0x24F5B, offset: 0x415F1, size: 0x8, addend: 0x0, symName: __ZNSt3__114__map_iteratorINS_15__tree_iteratorINS_12__value_typeINS_12basic_stringIcNS_11char_traitsIcEENS_9allocatorIcEEEEP5ClassEEPNS_11__tree_nodeISB_PvEElEEEC1B7v160006ESG_, symObjAddr: 0x110F0, symBinAddr: 0x1000233D0, symSize: 0x30 }
  - { offsetInCU: 0x24F94, offset: 0x4162A, size: 0x8, addend: 0x0, symName: __ZNSt3__115__tree_iteratorINS_12__value_typeINS_12basic_stringIcNS_11char_traitsIcEENS_9allocatorIcEEEEP5ClassEEPNS_11__tree_nodeISA_PvEElEC1B7v160006EPNS_15__tree_end_nodeIPNS_16__tree_node_baseISC_EEEE, symObjAddr: 0x11120, symBinAddr: 0x100023400, symSize: 0x30 }
  - { offsetInCU: 0x24FCD, offset: 0x41663, size: 0x8, addend: 0x0, symName: __ZNSt3__115__tree_iteratorINS_12__value_typeINS_12basic_stringIcNS_11char_traitsIcEENS_9allocatorIcEEEEP5ClassEEPNS_11__tree_nodeISA_PvEElEC2B7v160006EPNS_15__tree_end_nodeIPNS_16__tree_node_baseISC_EEEE, symObjAddr: 0x11150, symBinAddr: 0x100023430, symSize: 0x20 }
  - { offsetInCU: 0x25006, offset: 0x4169C, size: 0x8, addend: 0x0, symName: __ZNSt3__114__map_iteratorINS_15__tree_iteratorINS_12__value_typeINS_12basic_stringIcNS_11char_traitsIcEENS_9allocatorIcEEEEP5ClassEEPNS_11__tree_nodeISB_PvEElEEEC2B7v160006ESG_, symObjAddr: 0x11170, symBinAddr: 0x100023450, symSize: 0x20 }
  - { offsetInCU: 0x2503F, offset: 0x416D5, size: 0x8, addend: 0x0, symName: __ZNSt3__16__treeINS_12__value_typeINS_12basic_stringIcNS_11char_traitsIcEENS_9allocatorIcEEEEP5ClassEENS_19__map_value_compareIS7_SA_NS_4lessIS7_EELb1EEENS5_ISA_EEE3endB7v160006Ev, symObjAddr: 0x11190, symBinAddr: 0x100023470, symSize: 0x30 }
  - { offsetInCU: 0x25065, offset: 0x416FB, size: 0x8, addend: 0x0, symName: __ZNSt3__14pairIKNS_12basic_stringIcNS_11char_traitsIcEENS_9allocatorIcEEEEP5ClassEC2ERKSA_, symObjAddr: 0x11220, symBinAddr: 0x100023500, symSize: 0x40 }
  - { offsetInCU: 0x2509A, offset: 0x41730, size: 0x8, addend: 0x0, symName: __ZNSt3__115__tree_iteratorINS_12__value_typeINS_12basic_stringIcNS_11char_traitsIcEENS_9allocatorIcEEEEP5ClassEEPNS_11__tree_nodeISA_PvEElEppB7v160006Ev, symObjAddr: 0x11260, symBinAddr: 0x100023540, symSize: 0x30 }
  - { offsetInCU: 0x250C0, offset: 0x41756, size: 0x8, addend: 0x0, symName: __ZNSt3__16__treeINS_12__value_typeINS_12basic_stringIcNS_11char_traitsIcEENS_9allocatorIcEEEEP6MethodEENS_19__map_value_compareIS7_SA_NS_4lessIS7_EELb1EEENS5_ISA_EEE5beginB7v160006Ev, symObjAddr: 0x11340, symBinAddr: 0x100023620, symSize: 0x30 }
  - { offsetInCU: 0x250E6, offset: 0x4177C, size: 0x8, addend: 0x0, symName: __ZNSt3__114__map_iteratorINS_15__tree_iteratorINS_12__value_typeINS_12basic_stringIcNS_11char_traitsIcEENS_9allocatorIcEEEEP6MethodEEPNS_11__tree_nodeISB_PvEElEEEC1B7v160006ESG_, symObjAddr: 0x11370, symBinAddr: 0x100023650, symSize: 0x30 }
  - { offsetInCU: 0x2511F, offset: 0x417B5, size: 0x8, addend: 0x0, symName: __ZNSt3__115__tree_iteratorINS_12__value_typeINS_12basic_stringIcNS_11char_traitsIcEENS_9allocatorIcEEEEP6MethodEEPNS_11__tree_nodeISA_PvEElEC1B7v160006EPNS_15__tree_end_nodeIPNS_16__tree_node_baseISC_EEEE, symObjAddr: 0x113A0, symBinAddr: 0x100023680, symSize: 0x30 }
  - { offsetInCU: 0x25158, offset: 0x417EE, size: 0x8, addend: 0x0, symName: __ZNSt3__115__tree_iteratorINS_12__value_typeINS_12basic_stringIcNS_11char_traitsIcEENS_9allocatorIcEEEEP6MethodEEPNS_11__tree_nodeISA_PvEElEC2B7v160006EPNS_15__tree_end_nodeIPNS_16__tree_node_baseISC_EEEE, symObjAddr: 0x113D0, symBinAddr: 0x1000236B0, symSize: 0x20 }
  - { offsetInCU: 0x25191, offset: 0x41827, size: 0x8, addend: 0x0, symName: __ZNSt3__114__map_iteratorINS_15__tree_iteratorINS_12__value_typeINS_12basic_stringIcNS_11char_traitsIcEENS_9allocatorIcEEEEP6MethodEEPNS_11__tree_nodeISB_PvEElEEEC2B7v160006ESG_, symObjAddr: 0x113F0, symBinAddr: 0x1000236D0, symSize: 0x20 }
  - { offsetInCU: 0x251CA, offset: 0x41860, size: 0x8, addend: 0x0, symName: __ZNSt3__16__treeINS_12__value_typeINS_12basic_stringIcNS_11char_traitsIcEENS_9allocatorIcEEEEP6MethodEENS_19__map_value_compareIS7_SA_NS_4lessIS7_EELb1EEENS5_ISA_EEE3endB7v160006Ev, symObjAddr: 0x11410, symBinAddr: 0x1000236F0, symSize: 0x30 }
  - { offsetInCU: 0x251F0, offset: 0x41886, size: 0x8, addend: 0x0, symName: __ZNSt3__14pairIKNS_12basic_stringIcNS_11char_traitsIcEENS_9allocatorIcEEEEP6MethodEC2ERKSA_, symObjAddr: 0x114A0, symBinAddr: 0x100023780, symSize: 0x40 }
  - { offsetInCU: 0x25225, offset: 0x418BB, size: 0x8, addend: 0x0, symName: __ZNSt3__115__tree_iteratorINS_12__value_typeINS_12basic_stringIcNS_11char_traitsIcEENS_9allocatorIcEEEEP6MethodEEPNS_11__tree_nodeISA_PvEElEppB7v160006Ev, symObjAddr: 0x114E0, symBinAddr: 0x1000237C0, symSize: 0x30 }
  - { offsetInCU: 0x2524B, offset: 0x418E1, size: 0x8, addend: 0x0, symName: __ZNSt3__16__treeINS_12__value_typeINS_12basic_stringIcNS_11char_traitsIcEENS_9allocatorIcEEEEP8VariableEENS_19__map_value_compareIS7_SA_NS_4lessIS7_EELb1EEENS5_ISA_EEE5beginB7v160006Ev, symObjAddr: 0x11510, symBinAddr: 0x1000237F0, symSize: 0x30 }
  - { offsetInCU: 0x25271, offset: 0x41907, size: 0x8, addend: 0x0, symName: __ZNSt3__114__map_iteratorINS_15__tree_iteratorINS_12__value_typeINS_12basic_stringIcNS_11char_traitsIcEENS_9allocatorIcEEEEP8VariableEEPNS_11__tree_nodeISB_PvEElEEEC1B7v160006ESG_, symObjAddr: 0x11540, symBinAddr: 0x100023820, symSize: 0x30 }
  - { offsetInCU: 0x252AA, offset: 0x41940, size: 0x8, addend: 0x0, symName: __ZNSt3__115__tree_iteratorINS_12__value_typeINS_12basic_stringIcNS_11char_traitsIcEENS_9allocatorIcEEEEP8VariableEEPNS_11__tree_nodeISA_PvEElEC1B7v160006EPNS_15__tree_end_nodeIPNS_16__tree_node_baseISC_EEEE, symObjAddr: 0x11570, symBinAddr: 0x100023850, symSize: 0x30 }
  - { offsetInCU: 0x252E3, offset: 0x41979, size: 0x8, addend: 0x0, symName: __ZNSt3__115__tree_iteratorINS_12__value_typeINS_12basic_stringIcNS_11char_traitsIcEENS_9allocatorIcEEEEP8VariableEEPNS_11__tree_nodeISA_PvEElEC2B7v160006EPNS_15__tree_end_nodeIPNS_16__tree_node_baseISC_EEEE, symObjAddr: 0x115A0, symBinAddr: 0x100023880, symSize: 0x20 }
  - { offsetInCU: 0x2531C, offset: 0x419B2, size: 0x8, addend: 0x0, symName: __ZNSt3__114__map_iteratorINS_15__tree_iteratorINS_12__value_typeINS_12basic_stringIcNS_11char_traitsIcEENS_9allocatorIcEEEEP8VariableEEPNS_11__tree_nodeISB_PvEElEEEC2B7v160006ESG_, symObjAddr: 0x115C0, symBinAddr: 0x1000238A0, symSize: 0x20 }
  - { offsetInCU: 0x25355, offset: 0x419EB, size: 0x8, addend: 0x0, symName: __ZNSt3__16__treeINS_12__value_typeINS_12basic_stringIcNS_11char_traitsIcEENS_9allocatorIcEEEEP8VariableEENS_19__map_value_compareIS7_SA_NS_4lessIS7_EELb1EEENS5_ISA_EEE3endB7v160006Ev, symObjAddr: 0x115E0, symBinAddr: 0x1000238C0, symSize: 0x30 }
  - { offsetInCU: 0x2537B, offset: 0x41A11, size: 0x8, addend: 0x0, symName: __ZNSt3__14pairIKNS_12basic_stringIcNS_11char_traitsIcEENS_9allocatorIcEEEEP8VariableEC2ERKSA_, symObjAddr: 0x11670, symBinAddr: 0x100023950, symSize: 0x40 }
  - { offsetInCU: 0x253B0, offset: 0x41A46, size: 0x8, addend: 0x0, symName: __ZNSt3__115__tree_iteratorINS_12__value_typeINS_12basic_stringIcNS_11char_traitsIcEENS_9allocatorIcEEEEP8VariableEEPNS_11__tree_nodeISA_PvEElEppB7v160006Ev, symObjAddr: 0x116B0, symBinAddr: 0x100023990, symSize: 0x30 }
  - { offsetInCU: 0x253D6, offset: 0x41A6C, size: 0x8, addend: 0x0, symName: __ZNSt3__16vectorIP5ScopeNS_9allocatorIS2_EEE11__make_iterB7v160006EPS2_, symObjAddr: 0x116E0, symBinAddr: 0x1000239C0, symSize: 0x30 }
  - { offsetInCU: 0x2540B, offset: 0x41AA1, size: 0x8, addend: 0x0, symName: __ZNSt3__111__wrap_iterIPP5ScopeEC1B7v160006EPKvS3_, symObjAddr: 0x11710, symBinAddr: 0x1000239F0, symSize: 0x30 }
  - { offsetInCU: 0x25451, offset: 0x41AE7, size: 0x8, addend: 0x0, symName: __ZNSt3__111__wrap_iterIPP5ScopeEC2B7v160006EPKvS3_, symObjAddr: 0x11740, symBinAddr: 0x100023A20, symSize: 0x20 }
  - { offsetInCU: 0x25497, offset: 0x41B2D, size: 0x8, addend: 0x0, symName: __ZNKSt3__111__wrap_iterIPP5ScopeE4baseB7v160006Ev, symObjAddr: 0x117A0, symBinAddr: 0x100023A80, symSize: 0x20 }
  - { offsetInCU: 0x254BD, offset: 0x41B53, size: 0x8, addend: 0x0, symName: __ZN11SymbolTable17Semantic_AnalysisEP4Node, symObjAddr: 0x117C0, symBinAddr: 0x100023AA0, symSize: 0x770 }
  - { offsetInCU: 0x255C1, offset: 0x41C57, size: 0x8, addend: 0x0, symName: __ZN11SymbolTable13CheckForClassENSt3__112basic_stringIcNS0_11char_traitsIcEENS0_9allocatorIcEEEE, symObjAddr: 0x11F30, symBinAddr: 0x100024210, symSize: 0x50 }
  - { offsetInCU: 0x255F7, offset: 0x41C8D, size: 0x8, addend: 0x0, symName: __ZN11SymbolTable24Semantic_Analysis_ReturnEP4Node, symObjAddr: 0x11F80, symBinAddr: 0x100024260, symSize: 0x1A0 }
  - { offsetInCU: 0x2565A, offset: 0x41CF0, size: 0x8, addend: 0x0, symName: __ZN11SymbolTable24Semantic_Analysis_AssignEP4Node, symObjAddr: 0x12120, symBinAddr: 0x100024400, symSize: 0x600 }
  - { offsetInCU: 0x25713, offset: 0x41DA9, size: 0x8, addend: 0x0, symName: __ZN11SymbolTable24Semantic_Analysis_IfElseEP4Node, symObjAddr: 0x12720, symBinAddr: 0x100024A00, symSize: 0x380 }
  - { offsetInCU: 0x25792, offset: 0x41E28, size: 0x8, addend: 0x0, symName: __ZN11SymbolTable20Semantic_Analysis_IfEP4Node, symObjAddr: 0x12AA0, symBinAddr: 0x100024D80, symSize: 0x2E0 }
  - { offsetInCU: 0x25811, offset: 0x41EA7, size: 0x8, addend: 0x0, symName: __ZN11SymbolTable23Semantic_Analysis_WhileEP4Node, symObjAddr: 0x12D80, symBinAddr: 0x100025060, symSize: 0x2E0 }
  - { offsetInCU: 0x25890, offset: 0x41F26, size: 0x8, addend: 0x0, symName: __ZN11SymbolTable23Semantic_Analysis_PrintEP4Node, symObjAddr: 0x13060, symBinAddr: 0x100025340, symSize: 0x170 }
  - { offsetInCU: 0x258F9, offset: 0x41F8F, size: 0x8, addend: 0x0, symName: __ZN11SymbolTable28Semantic_Analysis_ExpressionEP4Node, symObjAddr: 0x131F0, symBinAddr: 0x1000254B0, symSize: 0x15F0 }
  - { offsetInCU: 0x25B0A, offset: 0x421A0, size: 0x8, addend: 0x0, symName: __ZNSt3__112basic_stringIcNS_11char_traitsIcEENS_9allocatorIcEEEaSB7v160006EOS5_, symObjAddr: 0x147E0, symBinAddr: 0x100026AA0, symSize: 0x30 }
  - { offsetInCU: 0x25B3F, offset: 0x421D5, size: 0x8, addend: 0x0, symName: __ZN11SymbolTable20IdentifierReturnTypeENSt3__112basic_stringIcNS0_11char_traitsIcEENS0_9allocatorIcEEEE, symObjAddr: 0x14890, symBinAddr: 0x100026B00, symSize: 0xD0 }
  - { offsetInCU: 0x25B84, offset: 0x4221A, size: 0x8, addend: 0x0, symName: __ZN5Class9getMethodENSt3__112basic_stringIcNS0_11char_traitsIcEENS0_9allocatorIcEEEE, symObjAddr: 0x14960, symBinAddr: 0x100026BD0, symSize: 0x100 }
  - { offsetInCU: 0x25C0C, offset: 0x422A2, size: 0x8, addend: 0x0, symName: __ZNSt3__16vectorIP6MethodNS_9allocatorIS2_EEE5beginB7v160006Ev, symObjAddr: 0x14A60, symBinAddr: 0x100026CD0, symSize: 0x30 }
  - { offsetInCU: 0x25C34, offset: 0x422CA, size: 0x8, addend: 0x0, symName: __ZNSt3__16vectorIP6MethodNS_9allocatorIS2_EEE3endB7v160006Ev, symObjAddr: 0x14A90, symBinAddr: 0x100026D00, symSize: 0x30 }
  - { offsetInCU: 0x25C5C, offset: 0x422F2, size: 0x8, addend: 0x0, symName: __ZNKSt3__111__wrap_iterIPP6MethodEdeB7v160006Ev, symObjAddr: 0x14AF0, symBinAddr: 0x100026D60, symSize: 0x20 }
  - { offsetInCU: 0x25C82, offset: 0x42318, size: 0x8, addend: 0x0, symName: __ZNSt3__111__wrap_iterIPP6MethodEppB7v160006Ev, symObjAddr: 0x14C20, symBinAddr: 0x100026E90, symSize: 0x20 }
  - { offsetInCU: 0x25CA8, offset: 0x4233E, size: 0x8, addend: 0x0, symName: __ZNSt3__16vectorIP6MethodNS_9allocatorIS2_EEE11__make_iterB7v160006EPS2_, symObjAddr: 0x14C40, symBinAddr: 0x100026EB0, symSize: 0x30 }
  - { offsetInCU: 0x25CDD, offset: 0x42373, size: 0x8, addend: 0x0, symName: __ZNSt3__111__wrap_iterIPP6MethodEC1B7v160006EPKvS3_, symObjAddr: 0x14C70, symBinAddr: 0x100026EE0, symSize: 0x30 }
  - { offsetInCU: 0x25D23, offset: 0x423B9, size: 0x8, addend: 0x0, symName: __ZNSt3__111__wrap_iterIPP6MethodEC2B7v160006EPKvS3_, symObjAddr: 0x14CA0, symBinAddr: 0x100026F10, symSize: 0x20 }
  - { offsetInCU: 0x25D69, offset: 0x423FF, size: 0x8, addend: 0x0, symName: __ZNKSt3__111__wrap_iterIPP6MethodE4baseB7v160006Ev, symObjAddr: 0x14D00, symBinAddr: 0x100026F70, symSize: 0x20 }
  - { offsetInCU: 0x25D8F, offset: 0x42425, size: 0x8, addend: 0x0, symName: __ZNSt3__112basic_stringIcNS_11char_traitsIcEENS_9allocatorIcEEE13__move_assignB7v160006ERS5_NS_17integral_constantIbLb1EEE, symObjAddr: 0x14D20, symBinAddr: 0x100026F90, symSize: 0xD0 }
  - { offsetInCU: 0x25DD2, offset: 0x42468, size: 0x8, addend: 0x0, symName: __ZNSt3__116allocator_traitsINS_9allocatorIcEEE10deallocateB7v160006ERS2_Pcm, symObjAddr: 0x14DF0, symBinAddr: 0x100027060, symSize: 0x30 }
  - { offsetInCU: 0x25E14, offset: 0x424AA, size: 0x8, addend: 0x0, symName: __ZNKSt3__112basic_stringIcNS_11char_traitsIcEENS_9allocatorIcEEE14__get_long_capB7v160006Ev, symObjAddr: 0x14E20, symBinAddr: 0x100027090, symSize: 0x30 }
  - { offsetInCU: 0x25E3A, offset: 0x424D0, size: 0x8, addend: 0x0, symName: __ZNSt3__112basic_stringIcNS_11char_traitsIcEENS_9allocatorIcEEE19__move_assign_allocB7v160006ERS5_, symObjAddr: 0x14E50, symBinAddr: 0x1000270C0, symSize: 0x30 }
  - { offsetInCU: 0x25E6F, offset: 0x42505, size: 0x8, addend: 0x0, symName: __ZNSt3__111char_traitsIcE6assignERcRKc, symObjAddr: 0x14E80, symBinAddr: 0x1000270F0, symSize: 0x20 }
  - { offsetInCU: 0x25EA0, offset: 0x42536, size: 0x8, addend: 0x0, symName: __ZNSt3__19allocatorIcE10deallocateB7v160006EPcm, symObjAddr: 0x14EA0, symBinAddr: 0x100027110, symSize: 0x40 }
  - { offsetInCU: 0x25EE2, offset: 0x42578, size: 0x8, addend: 0x0, symName: __ZNSt3__112basic_stringIcNS_11char_traitsIcEENS_9allocatorIcEEE19__move_assign_allocB7v160006ERS5_NS_17integral_constantIbLb1EEE, symObjAddr: 0x14EE0, symBinAddr: 0x100027150, symSize: 0x30 }
  - { offsetInCU: 0x25F23, offset: 0x425B9, size: 0x8, addend: 0x0, symName: __ZN6RecordC1Ev, symObjAddr: 0x14F10, symBinAddr: 0x100027180, symSize: 0x1B }
...
